In archive lib7/libconsole.a:

font.o:     file format elf32-littlearm


Disassembly of section .text:

00000000 <FONT>:
	...
 210:	08000000 	stmdaeq	r0, {}	; <UNPREDICTABLE>
 214:	08080808 	stmdaeq	r8, {r3, fp}
 218:	08080008 	stmdaeq	r8, {r3}
 21c:	00000000 	andeq	r0, r0, r0
 220:	14000000 	strne	r0, [r0], #-0
 224:	00141414 	andseq	r1, r4, r4, lsl r4
	...
 230:	48480000 	stmdami	r8, {}^	; <UNPREDICTABLE>
 234:	2424fe68 	strtcs	pc, [r4], #-3688	; 0xfffff198
 238:	1212147f 	andsne	r1, r2, #2130706432	; 0x7f000000
 23c:	00000000 	andeq	r0, r0, r0
 240:	10000000 	andne	r0, r0, r0
 244:	1c12927c 	lfmne	f1, 1, [r2], {124}	; 0x7c
 248:	7c929070 	ldcvc	0, cr9, [r2], {112}	; 0x70
 24c:	00001010 	andeq	r1, r0, r0, lsl r0
 250:	06000000 	streq	r0, [r0], -r0
 254:	38460909 	stmdacc	r6, {r0, r3, r8, fp}^
 258:	60909066 	addsvs	r9, r0, r6, rrx
 25c:	00000000 	andeq	r0, r0, r0
 260:	38000000 	stmdacc	r0, {}	; <UNPREDICTABLE>
 264:	920c0404 	andls	r0, ip, #4, 8	; 0x4000000
 268:	bc46a2b2 	sfmlt	f2, 3, [r6], {178}	; 0xb2
 26c:	00000000 	andeq	r0, r0, r0
 270:	08000000 	stmdaeq	r0, {}	; <UNPREDICTABLE>
 274:	00080808 	andeq	r0, r8, r8, lsl #16
	...
 280:	10103000 	andsne	r3, r0, r0
 284:	08080808 	stmdaeq	r8, {r3, fp}
 288:	10100808 	andsne	r0, r0, r8, lsl #16
 28c:	00000020 	andeq	r0, r0, r0, lsr #32
 290:	08080c00 	stmdaeq	r8, {sl, fp}
 294:	10101010 	andsne	r1, r0, r0, lsl r0
 298:	08081010 	stmdaeq	r8, {r4, ip}
 29c:	0000000c 	andeq	r0, r0, ip
 2a0:	10000000 	andne	r0, r0, r0
 2a4:	d6387c92 			; <UNDEFINED> instruction: 0xd6387c92
 2a8:	00000010 	andeq	r0, r0, r0, lsl r0
	...
 2b4:	7f080808 	svcvc	0x00080808
 2b8:	00080808 	andeq	r0, r8, r8, lsl #16
	...
 2c8:	18180000 	ldmdane	r8, {}	; <UNPREDICTABLE>
 2cc:	00000408 	andeq	r0, r0, r8, lsl #8
	...
 2d8:	0000001c 	andeq	r0, r0, ip, lsl r0
	...
 2e8:	18180000 	ldmdane	r8, {}	; <UNPREDICTABLE>
 2ec:	00000000 	andeq	r0, r0, r0
 2f0:	40000000 	andmi	r0, r0, r0
 2f4:	10102020 	andsne	r2, r0, r0, lsr #32
 2f8:	04080818 	streq	r0, [r8], #-2072	; 0xfffff7e8
 2fc:	00000204 	andeq	r0, r0, r4, lsl #4
 300:	38000000 	stmdacc	r0, {}	; <UNPREDICTABLE>
 304:	92828244 	addls	r8, r2, #68, 4	; 0x40000004
 308:	38448282 	stmdacc	r4, {r1, r7, r9, pc}^
 30c:	00000000 	andeq	r0, r0, r0
 310:	1c000000 	stcne	0, cr0, [r0], {-0}
 314:	10101010 	andsne	r1, r0, r0, lsl r0
 318:	7c101010 	ldcvc	0, cr1, [r0], {16}
 31c:	00000000 	andeq	r0, r0, r0
 320:	7c000000 	stcvc	0, cr0, [r0], {-0}
 324:	408080c2 	addmi	r8, r0, r2, asr #1
 328:	fe041830 	vfmal.f16	d1, s8, s1[0]
 32c:	00000000 	andeq	r0, r0, r0
 330:	7c000000 	stcvc	0, cr0, [r0], {-0}
 334:	38c08082 	stmiacc	r0, {r1, r7, pc}^
 338:	7cc280c0 	stclvc	0, cr8, [r2], {192}	; 0xc0
 33c:	00000000 	andeq	r0, r0, r0
 340:	60000000 	andvs	r0, r0, r0
 344:	44485850 	strbmi	r5, [r8], #-2128	; 0xfffff7b0
 348:	4040fe42 	submi	pc, r0, r2, asr #28
 34c:	00000000 	andeq	r0, r0, r0
 350:	7e000000 	cdpvc	0, 0, cr0, cr0, cr0, {0}
 354:	c03e0202 	eorsgt	r0, lr, r2, lsl #4
 358:	3cc28080 	stclcc	0, cr8, [r2], {128}	; 0x80
 35c:	00000000 	andeq	r0, r0, r0
 360:	78000000 	stmdavc	r0, {}	; <UNPREDICTABLE>
 364:	c67a0284 	ldrbtgt	r0, [sl], -r4, lsl #5
 368:	78c48282 	stmiavc	r4, {r1, r7, r9, pc}^
 36c:	00000000 	andeq	r0, r0, r0
 370:	fe000000 	cdp2	0, 0, cr0, cr0, cr0, {0}
 374:	20204040 	eorcs	r4, r0, r0, asr #32
 378:	04081810 	streq	r1, [r8], #-2064	; 0xfffff7f0
 37c:	00000000 	andeq	r0, r0, r0
 380:	7c000000 	stcvc	0, cr0, [r0], {-0}
 384:	7c828282 	sfmvc	f0, 1, [r2], {130}	; 0x82
 388:	7c868282 	sfmvc	f0, 1, [r6], {130}	; 0x82
 38c:	00000000 	andeq	r0, r0, r0
 390:	3c000000 	stccc	0, cr0, [r0], {-0}
 394:	c6828246 	strgt	r8, [r2], r6, asr #4
 398:	3c4280bc 	mcrrcc	0, 11, r8, r2, cr12
	...
 3a4:	00181800 	andseq	r1, r8, r0, lsl #16
 3a8:	18180000 	ldmdane	r8, {}	; <UNPREDICTABLE>
	...
 3b4:	00181800 	andseq	r1, r8, r0, lsl #16
 3b8:	18180000 	ldmdane	r8, {}	; <UNPREDICTABLE>
 3bc:	00000408 	andeq	r0, r0, r8, lsl #8
 3c0:	00000000 	andeq	r0, r0, r0
 3c4:	0e708000 	cdpeq	0, 7, cr8, cr0, cr0, {0}
 3c8:	0080700e 	addeq	r7, r0, lr
	...
 3d4:	00fe0000 	rscseq	r0, lr, r0
 3d8:	0000fe00 	andeq	pc, r0, r0, lsl #28
	...
 3e4:	e01c0200 	ands	r0, ip, r0, lsl #4
 3e8:	00021ce0 	andeq	r1, r2, r0, ror #25
 3ec:	00000000 	andeq	r0, r0, r0
 3f0:	1c000000 	stcne	0, cr0, [r0], {-0}
 3f4:	08102022 	ldmdaeq	r0, {r1, r5, sp}
 3f8:	08080008 	stmdaeq	r8, {r3}
 3fc:	00000000 	andeq	r0, r0, r0
 400:	78000000 	stmdavc	r0, {}	; <UNPREDICTABLE>
 404:	92e284cc 	rscls	r8, r2, #204, 8	; 0xcc000000
 408:	04e29292 	strbteq	r9, [r2], #658	; 0x292
 40c:	0000780c 	andeq	r7, r0, ip, lsl #16
 410:	10000000 	andne	r0, r0, r0
 414:	44282828 	strtmi	r2, [r8], #-2088	; 0xfffff7d8
 418:	82c67c44 	sbchi	r7, r6, #68, 24	; 0x4400
 41c:	00000000 	andeq	r0, r0, r0
 420:	7e000000 	cdpvc	0, 0, cr0, cr0, cr0, {0}
 424:	7e828282 	cdpvc	2, 8, cr8, cr2, cr2, {4}
 428:	7e828282 	cdpvc	2, 8, cr8, cr2, cr2, {4}
 42c:	00000000 	andeq	r0, r0, r0
 430:	78000000 	stmdavc	r0, {}	; <UNPREDICTABLE>
 434:	02020284 	andeq	r0, r2, #132, 4	; 0x40000008
 438:	78840202 	stmvc	r4, {r1, r9}
 43c:	00000000 	andeq	r0, r0, r0
 440:	3e000000 	cdpcc	0, 0, cr0, cr0, cr0, {0}
 444:	82828242 	addhi	r8, r2, #536870916	; 0x20000004
 448:	3e428282 	cdpcc	2, 4, cr8, cr2, cr2, {4}
 44c:	00000000 	andeq	r0, r0, r0
 450:	fe000000 	cdp2	0, 0, cr0, cr0, cr0, {0}
 454:	fe020202 	cdp2	2, 0, cr0, cr2, cr2, {0}
 458:	fe020202 	cdp2	2, 0, cr0, cr2, cr2, {0}
 45c:	00000000 	andeq	r0, r0, r0
 460:	fe000000 	cdp2	0, 0, cr0, cr0, cr0, {0}
 464:	fe020202 	cdp2	2, 0, cr0, cr2, cr2, {0}
 468:	02020202 	andeq	r0, r2, #536870912	; 0x20000000
 46c:	00000000 	andeq	r0, r0, r0
 470:	78000000 	stmdavc	r0, {}	; <UNPREDICTABLE>
 474:	c2020284 	andgt	r0, r2, #132, 4	; 0x40000008
 478:	78848282 	stmvc	r4, {r1, r7, r9, pc}
 47c:	00000000 	andeq	r0, r0, r0
 480:	82000000 	andhi	r0, r0, #0
 484:	fe828282 	cdp2	2, 8, cr8, cr2, cr2, {4}
 488:	82828282 	addhi	r8, r2, #536870920	; 0x20000008
 48c:	00000000 	andeq	r0, r0, r0
 490:	3e000000 	cdpcc	0, 0, cr0, cr0, cr0, {0}
 494:	08080808 	stmdaeq	r8, {r3, fp}
 498:	3e080808 	cdpcc	8, 0, cr0, cr8, cr8, {0}
 49c:	00000000 	andeq	r0, r0, r0
 4a0:	38000000 	stmdacc	r0, {}	; <UNPREDICTABLE>
 4a4:	20202020 	eorcs	r2, r0, r0, lsr #32
 4a8:	1c222020 	stcne	0, cr2, [r2], #-128	; 0xffffff80
 4ac:	00000000 	andeq	r0, r0, r0
 4b0:	42000000 	andmi	r0, r0, #0
 4b4:	0e0a1222 	cdpeq	2, 0, cr1, cr10, cr2, {1}
 4b8:	42222212 	eormi	r2, r2, #536870913	; 0x20000001
 4bc:	00000000 	andeq	r0, r0, r0
 4c0:	02000000 	andeq	r0, r0, #0
 4c4:	02020202 	andeq	r0, r2, #536870912	; 0x20000000
 4c8:	fe020202 	cdp2	2, 0, cr0, cr2, cr2, {0}
 4cc:	00000000 	andeq	r0, r0, r0
 4d0:	c6000000 	strgt	r0, [r0], -r0
 4d4:	aaaaaac6 	bge	feaaaff4 <FONT+0xfeaaaff4>
 4d8:	82828292 	addhi	r8, r2, #536870921	; 0x20000009
 4dc:	00000000 	andeq	r0, r0, r0
 4e0:	86000000 	strhi	r0, [r0], -r0
 4e4:	928a8a86 	addls	r8, sl, #548864	; 0x86000
 4e8:	c2c2a2a2 	sbcgt	sl, r2, #536870922	; 0x2000000a
 4ec:	00000000 	andeq	r0, r0, r0
 4f0:	38000000 	stmdacc	r0, {}	; <UNPREDICTABLE>
 4f4:	82828244 	addhi	r8, r2, #68, 4	; 0x40000004
 4f8:	38448282 	stmdacc	r4, {r1, r7, r9, pc}^
 4fc:	00000000 	andeq	r0, r0, r0
 500:	7e000000 	cdpvc	0, 0, cr0, cr0, cr0, {0}
 504:	c28282c2 	addgt	r8, r2, #536870924	; 0x2000000c
 508:	0202027e 	andeq	r0, r2, #-536870905	; 0xe0000007
 50c:	00000000 	andeq	r0, r0, r0
 510:	38000000 	stmdacc	r0, {}	; <UNPREDICTABLE>
 514:	82828244 	addhi	r8, r2, #68, 4	; 0x40000004
 518:	78448282 	stmdavc	r4, {r1, r7, r9, pc}^
 51c:	00004060 	andeq	r4, r0, r0, rrx
 520:	7e000000 	cdpvc	0, 0, cr0, cr0, cr0, {0}
 524:	7e8282c2 	cdpvc	2, 8, cr8, cr2, cr2, {6}
 528:	02828242 	addeq	r8, r2, #536870916	; 0x20000004
 52c:	00000000 	andeq	r0, r0, r0
 530:	7c000000 	stcvc	0, cr0, [r0], {-0}
 534:	7c060286 	sfmvc	f0, 4, [r6], {134}	; 0x86
 538:	7dc280c0 	stclvc	0, cr8, [r2, #768]	; 0x300
 53c:	00000000 	andeq	r0, r0, r0
 540:	7f000000 	svcvc	0x00000000
 544:	08080808 	stmdaeq	r8, {r3, fp}
 548:	08080808 	stmdaeq	r8, {r3, fp}
 54c:	00000000 	andeq	r0, r0, r0
 550:	82000000 	andhi	r0, r0, #0
 554:	82828282 	addhi	r8, r2, #536870920	; 0x20000008
 558:	7c828282 	sfmvc	f0, 1, [r2], {130}	; 0x82
 55c:	00000000 	andeq	r0, r0, r0
 560:	82000000 	andhi	r0, r0, #0
 564:	444444c6 	strbmi	r4, [r4], #-1222	; 0xfffffb3a
 568:	10282828 	eorne	r2, r8, r8, lsr #16
 56c:	00000000 	andeq	r0, r0, r0
 570:	81000000 	mrshi	r0, (UNDEF: 0)
 574:	5a5a8181 	bpl	16a0b80 <FONT+0x16a0b80>
 578:	6666665a 			; <UNDEFINED> instruction: 0x6666665a
 57c:	00000000 	andeq	r0, r0, r0
 580:	c6000000 	strgt	r0, [r0], -r0
 584:	10382844 	eorsne	r2, r8, r4, asr #16
 588:	82446c28 	subhi	r6, r4, #40, 24	; 0x2800
 58c:	00000000 	andeq	r0, r0, r0
 590:	41000000 	mrsmi	r0, (UNDEF: 0)
 594:	08141422 	ldmdaeq	r4, {r1, r5, sl, ip}
 598:	08080808 	stmdaeq	r8, {r3, fp}
 59c:	00000000 	andeq	r0, r0, r0
 5a0:	fe000000 	cdp2	0, 0, cr0, cr0, cr0, {0}
 5a4:	102060c0 	eorne	r6, r0, r0, asr #1
 5a8:	fe060c08 	cdp2	12, 0, cr0, cr6, cr8, {0}
 5ac:	00000000 	andeq	r0, r0, r0
 5b0:	08083800 	stmdaeq	r8, {fp, ip, sp}
 5b4:	08080808 	stmdaeq	r8, {r3, fp}
 5b8:	08080808 	stmdaeq	r8, {r3, fp}
 5bc:	00000038 	andeq	r0, r0, r8, lsr r0
 5c0:	02000000 	andeq	r0, r0, #0
 5c4:	08080404 	stmdaeq	r8, {r2, sl}
 5c8:	20101018 	andscs	r1, r0, r8, lsl r0
 5cc:	00004020 	andeq	r4, r0, r0, lsr #32
 5d0:	10101c00 	andsne	r1, r0, r0, lsl #24
 5d4:	10101010 	andsne	r1, r0, r0, lsl r0
 5d8:	10101010 	andsne	r1, r0, r0, lsl r0
 5dc:	0000001c 	andeq	r0, r0, ip, lsl r0
 5e0:	08000000 	stmdaeq	r0, {}	; <UNPREDICTABLE>
 5e4:	00632214 	rsbeq	r2, r3, r4, lsl r2
	...
 5fc:	007f0000 	rsbseq	r0, pc, r0
 600:	10080000 	andne	r0, r8, r0
	...
 614:	40443800 	submi	r3, r4, r0, lsl #16
 618:	5c62427c 	sfmpl	f4, 2, [r2], #-496	; 0xfffffe10
 61c:	00000000 	andeq	r0, r0, r0
 620:	02020200 	andeq	r0, r2, #0, 4
 624:	42663e02 	rsbmi	r3, r6, #2, 28
 628:	3e664242 	cdpcc	2, 6, cr4, cr6, cr2, {2}
	...
 634:	02443800 	subeq	r3, r4, #0, 16
 638:	38440202 	stmdacc	r4, {r1, r9}^
 63c:	00000000 	andeq	r0, r0, r0
 640:	40404000 	submi	r4, r0, r0
 644:	42667c40 	rsbmi	r7, r6, #64, 24	; 0x4000
 648:	7c664242 	sfmvc	f4, 2, [r6], #-264	; 0xfffffef8
	...
 654:	42663c00 	rsbmi	r3, r6, #0, 24
 658:	3c46027e 	sfmcc	f0, 2, [r6], {126}	; 0x7e
 65c:	00000000 	andeq	r0, r0, r0
 660:	08083000 	stmdaeq	r8, {ip, sp}
 664:	08083e08 	stmdaeq	r8, {r3, r9, sl, fp, ip, sp}
 668:	08080808 	stmdaeq	r8, {r3, fp}
	...
 674:	42667c00 	rsbmi	r7, r6, #0, 24
 678:	5c664242 	sfmpl	f4, 2, [r6], #-264	; 0xfffffef8
 67c:	00384440 	eorseq	r4, r8, r0, asr #8
 680:	02020200 	andeq	r0, r2, #0, 4
 684:	42463a02 	submi	r3, r6, #8192	; 0x2000
 688:	42424242 	submi	r4, r2, #536870916	; 0x20000004
 68c:	00000000 	andeq	r0, r0, r0
 690:	00000800 	andeq	r0, r0, r0, lsl #16
 694:	08080e00 	stmdaeq	r8, {r9, sl, fp}
 698:	3e080808 	cdpcc	8, 0, cr0, cr8, cr8, {0}
 69c:	00000000 	andeq	r0, r0, r0
 6a0:	00001000 	andeq	r1, r0, r0
 6a4:	10101c00 	andsne	r1, r0, r0, lsl #24
 6a8:	10101010 	andsne	r1, r0, r0, lsl r0
 6ac:	000e1010 	andeq	r1, lr, r0, lsl r0
 6b0:	02020200 	andeq	r0, r2, #0, 4
 6b4:	0a122202 	beq	488ec4 <FONT+0x488ec4>
 6b8:	4222120e 	eormi	r1, r2, #-536870912	; 0xe0000000
 6bc:	00000000 	andeq	r0, r0, r0
 6c0:	08080e00 	stmdaeq	r8, {r9, sl, fp}
 6c4:	08080808 	stmdaeq	r8, {r3, fp}
 6c8:	70080808 	andvc	r0, r8, r8, lsl #16
	...
 6d4:	9292fe00 	addsls	pc, r2, #0, 28
 6d8:	92929292 	addsls	r9, r2, #536870921	; 0x20000009
	...
 6e4:	42463a00 	submi	r3, r6, #0, 20
 6e8:	42424242 	submi	r4, r2, #536870916	; 0x20000004
	...
 6f4:	42663c00 	rsbmi	r3, r6, #0, 24
 6f8:	3c664242 	sfmcc	f4, 2, [r6], #-264	; 0xfffffef8
	...
 704:	42663e00 	rsbmi	r3, r6, #0, 28
 708:	3e664242 	cdpcc	2, 6, cr4, cr6, cr2, {2}
 70c:	00020202 	andeq	r0, r2, r2, lsl #4
 710:	00000000 	andeq	r0, r0, r0
 714:	42667c00 	rsbmi	r7, r6, #0, 24
 718:	5c664242 	sfmpl	f4, 2, [r6], #-264	; 0xfffffef8
 71c:	00404040 	subeq	r4, r0, r0, asr #32
 720:	00000000 	andeq	r0, r0, r0
 724:	044c3c00 	strbeq	r3, [ip], #-3072	; 0xfffff400
 728:	04040404 	streq	r0, [r4], #-1028	; 0xfffffbfc
	...
 734:	02423c00 	subeq	r3, r2, #0, 24
 738:	3c42403c 	mcrrcc	0, 3, r4, r2, cr12
 73c:	00000000 	andeq	r0, r0, r0
 740:	08000000 	stmdaeq	r0, {}	; <UNPREDICTABLE>
 744:	08087e08 	stmdaeq	r8, {r3, r9, sl, fp, ip, sp, lr}
 748:	70080808 	andvc	r0, r8, r8, lsl #16
	...
 754:	42424200 	submi	r4, r2, #0, 4
 758:	5c624242 	sfmpl	f4, 2, [r2], #-264	; 0xfffffef8
	...
 764:	24664200 	strbtcs	r4, [r6], #-512	; 0xfffffe00
 768:	18183c24 	ldmdane	r8, {r2, r5, sl, fp, ip, sp}
	...
 774:	5a818100 	bpl	fe060b7c <FONT+0xfe060b7c>
 778:	24245a5a 	strtcs	r5, [r4], #-2650	; 0xfffff5a6
	...
 784:	18246600 	stmdane	r4!, {r9, sl, sp, lr}
 788:	66241818 			; <UNDEFINED> instruction: 0x66241818
	...
 794:	24444200 	strbcs	r4, [r4], #-512	; 0xfffffe00
 798:	10182824 	andsne	r2, r8, r4, lsr #16
 79c:	000c0810 	andeq	r0, ip, r0, lsl r8
 7a0:	00000000 	andeq	r0, r0, r0
 7a4:	20407e00 	subcs	r7, r0, r0, lsl #28
 7a8:	7e020418 	cfmvdlrvc	mvd2, r0
 7ac:	00000000 	andeq	r0, r0, r0
 7b0:	08083800 	stmdaeq	r8, {fp, ip, sp}
 7b4:	08060808 	stmdaeq	r6, {r3, fp}
 7b8:	08080808 	stmdaeq	r8, {r3, fp}
 7bc:	00000030 	andeq	r0, r0, r0, lsr r0
 7c0:	08080800 	stmdaeq	r8, {fp}
 7c4:	08080808 	stmdaeq	r8, {r3, fp}
 7c8:	08080808 	stmdaeq	r8, {r3, fp}
 7cc:	00000808 	andeq	r0, r0, r8, lsl #16
 7d0:	08080e00 	stmdaeq	r8, {r9, sl, fp}
 7d4:	08300808 	ldmdaeq	r0!, {r3, fp}
 7d8:	08080808 	stmdaeq	r8, {r3, fp}
 7dc:	00000006 	andeq	r0, r0, r6
 7e0:	00000000 	andeq	r0, r0, r0
 7e4:	9c000000 	stcls	0, cr0, [r0], {-0}
 7e8:	00000062 	andeq	r0, r0, r2, rrx
 7ec:	00000000 	andeq	r0, r0, r0
 7f0:	ffffffff 			; <UNDEFINED> instruction: 0xffffffff
 7f4:	ffffffff 			; <UNDEFINED> instruction: 0xffffffff
 7f8:	ffffffff 			; <UNDEFINED> instruction: 0xffffffff
 7fc:	ffffffff 			; <UNDEFINED> instruction: 0xffffffff

Disassembly of section .ARM.attributes:

00000000 <.ARM.attributes>:
   0:	00002041 	andeq	r2, r0, r1, asr #32
   4:	61656100 	cmnvs	r5, r0, lsl #2
   8:	01006962 	tsteq	r0, r2, ror #18
   c:	00000016 	andeq	r0, r0, r6, lsl r0
  10:	412d3705 			; <UNDEFINED> instruction: 0x412d3705
  14:	070a0600 	streq	r0, [sl, -r0, lsl #12]
  18:	09010841 	stmdbeq	r1, {r0, r6, fp}
  1c:	0c050a02 			; <UNDEFINED> instruction: 0x0c050a02
  20:	Address 0x0000000000000020 is out of bounds.


console_none.o:     file format elf32-littlearm


Disassembly of section .comment:

00000000 <.comment>:
   0:	43434700 	movtmi	r4, #14080	; 0x3700
   4:	4728203a 			; <UNDEFINED> instruction: 0x4728203a
   8:	5420554e 	strtpl	r5, [r0], #-1358	; 0xfffffab2
   c:	736c6f6f 	cmnvc	ip, #444	; 0x1bc
  10:	726f6620 	rsbvc	r6, pc, #32, 12	; 0x2000000
  14:	6d724120 	ldfvse	f4, [r2, #-128]!	; 0xffffff80
  18:	626d4520 	rsbvs	r4, sp, #32, 10	; 0x8000000
  1c:	65646465 	strbvs	r6, [r4, #-1125]!	; 0xfffffb9b
  20:	72502064 	subsvc	r2, r0, #100	; 0x64
  24:	7365636f 	cmnvc	r5, #-1140850687	; 0xbc000001
  28:	73726f73 	cmnvc	r2, #460	; 0x1cc
  2c:	322d3820 	eorcc	r3, sp, #32, 16	; 0x200000
  30:	2d393130 	ldfcss	f3, [r9, #-192]!	; 0xffffff40
  34:	752d3371 	strvc	r3, [sp, #-881]!	; 0xfffffc8f
  38:	74616470 	strbtvc	r6, [r1], #-1136	; 0xfffffb90
  3c:	38202965 	stmdacc	r0!, {r0, r2, r5, r6, r8, fp, sp}
  40:	312e332e 			; <UNDEFINED> instruction: 0x312e332e
  44:	31303220 	teqcc	r0, r0, lsr #4
  48:	30373039 	eorscc	r3, r7, r9, lsr r0
  4c:	72282033 	eorvc	r2, r8, #51	; 0x33
  50:	61656c65 	cmnvs	r5, r5, ror #24
  54:	20296573 	eorcs	r6, r9, r3, ror r5
  58:	6363675b 	cmnvs	r3, #23855104	; 0x16c0000
  5c:	622d382d 	eorvs	r3, sp, #2949120	; 0x2d0000
  60:	636e6172 	cmnvs	lr, #-2147483620	; 0x8000001c
  64:	65722068 	ldrbvs	r2, [r2, #-104]!	; 0xffffff98
  68:	69736976 	ldmdbvs	r3!, {r1, r2, r4, r5, r6, r8, fp, sp, lr}^
  6c:	32206e6f 	eorcc	r6, r0, #1776	; 0x6f0
  70:	32303337 	eorscc	r3, r0, #-603979776	; 0xdc000000
  74:	Address 0x0000000000000074 is out of bounds.


Disassembly of section .ARM.attributes:

00000000 <.ARM.attributes>:
   0:	00003441 	andeq	r3, r0, r1, asr #8
   4:	61656100 	cmnvs	r5, r0, lsl #2
   8:	01006962 	tsteq	r0, r2, ror #18
   c:	0000002a 	andeq	r0, r0, sl, lsr #32
  10:	412d3705 			; <UNDEFINED> instruction: 0x412d3705
  14:	070a0600 	streq	r0, [sl, -r0, lsl #12]
  18:	09010841 	stmdbeq	r1, {r0, r6, fp}
  1c:	0c050a02 			; <UNDEFINED> instruction: 0x0c050a02
  20:	14041202 	strne	r1, [r4], #-514	; 0xfffffdfe
  24:	17011501 	strne	r1, [r1, -r1, lsl #10]
  28:	19011803 	stmdbne	r1, {r0, r1, fp, ip}
  2c:	1c011a01 			; <UNDEFINED> instruction: 0x1c011a01
  30:	22021e01 	andcs	r1, r2, #1, 28
  34:	Address 0x0000000000000034 is out of bounds.


console_fb.o:     file format elf32-littlearm


Disassembly of section .text:

00000000 <console_clear_line.part.2>:
   0:	e3003000 	movw	r3, #0
   4:	e300c000 	movw	ip, #0
   8:	e3403000 	movt	r3, #0
   c:	e3a02b19 	mov	r2, #25600	; 0x6400
  10:	e340c000 	movt	ip, #0
  14:	e5933000 	ldr	r3, [r3]
  18:	e52de004 	push	{lr}		; (str lr, [sp, #-4]!)
  1c:	e3a0e000 	mov	lr, #0
  20:	e0233092 	mla	r3, r2, r0, r3
  24:	e1dc20b4 	ldrh	r2, [ip, #4]
  28:	e1a0100e 	mov	r1, lr
  2c:	e1cc00b0 	strh	r0, [ip]
  30:	e2830c63 	add	r0, r3, #25344	; 0x6300
  34:	e1cce0b2 	strh	lr, [ip, #2]
  38:	e28000e0 	add	r0, r0, #224	; 0xe0
  3c:	e1822802 	orr	r2, r2, r2, lsl #16
  40:	e5832000 	str	r2, [r3]
  44:	e1a0c003 	mov	ip, r3
  48:	e5832004 	str	r2, [r3, #4]
  4c:	e2811008 	add	r1, r1, #8
  50:	e5832008 	str	r2, [r3, #8]
  54:	e6ff1071 	uxth	r1, r1
  58:	e583200c 	str	r2, [r3, #12]
  5c:	e5832010 	str	r2, [r3, #16]
  60:	e5832014 	str	r2, [r3, #20]
  64:	e5832018 	str	r2, [r3, #24]
  68:	f5d3f088 	pld	[r3, #136]	; 0x88
  6c:	e2833020 	add	r3, r3, #32
  70:	e1530000 	cmp	r3, r0
  74:	e58c201c 	str	r2, [ip, #28]
  78:	1afffff0 	bne	40 <console_clear_line.part.2+0x40>
  7c:	e2611d63 	rsb	r1, r1, #6336	; 0x18c0
  80:	e281103f 	add	r1, r1, #63	; 0x3f
  84:	e6ff1071 	uxth	r1, r1
  88:	e2811001 	add	r1, r1, #1
  8c:	e0831101 	add	r1, r3, r1, lsl #2
  90:	e4832004 	str	r2, [r3], #4
  94:	e1530001 	cmp	r3, r1
  98:	1afffffc 	bne	90 <console_clear_line.part.2+0x90>
  9c:	e49df004 	pop	{pc}		; (ldr pc, [sp], #4)

000000a0 <console_init>:
  a0:	eafffffe 	b	0 <fb_init>

000000a4 <console_get_line_width>:
  a4:	e3a00064 	mov	r0, #100	; 0x64
  a8:	e12fff1e 	bx	lr

000000ac <console_set_top_row>:
  ac:	e3003000 	movw	r3, #0
  b0:	e3a02000 	mov	r2, #0
  b4:	e3403000 	movt	r3, #0
  b8:	e350001f 	cmp	r0, #31
  bc:	e1c300b0 	strh	r0, [r3]
  c0:	21a00002 	movcs	r0, r2
  c4:	e1c300b6 	strh	r0, [r3, #6]
  c8:	e1c320b2 	strh	r2, [r3, #2]
  cc:	e12fff1e 	bx	lr

000000d0 <console_draw_char>:
  d0:	e92d41f0 	push	{r4, r5, r6, r7, r8, lr}
  d4:	e300c000 	movw	ip, #0
  d8:	e340c000 	movt	ip, #0
  dc:	e3a0ee32 	mov	lr, #800	; 0x320
  e0:	e1a01181 	lsl	r1, r1, #3
  e4:	e1a02202 	lsl	r2, r2, #4
  e8:	e022129e 	mla	r2, lr, r2, r1
  ec:	e08cc200 	add	ip, ip, r0, lsl #4
  f0:	e300e000 	movw	lr, #0
  f4:	e1dd51b8 	ldrh	r5, [sp, #24]
  f8:	e28c6010 	add	r6, ip, #16
  fc:	e1a02082 	lsl	r2, r2, #1
 100:	e340e000 	movt	lr, #0
 104:	e4dc4001 	ldrb	r4, [ip], #1
 108:	e1a01002 	mov	r1, r2
 10c:	e2827010 	add	r7, r2, #16
 110:	e59e8000 	ldr	r8, [lr]
 114:	e3140001 	tst	r4, #1
 118:	e1a040a4 	lsr	r4, r4, #1
 11c:	118130b8 	strhne	r3, [r1, r8]
 120:	018150b8 	strheq	r5, [r1, r8]
 124:	e2811002 	add	r1, r1, #2
 128:	e1510007 	cmp	r1, r7
 12c:	1afffff7 	bne	110 <console_draw_char+0x40>
 130:	e15c0006 	cmp	ip, r6
 134:	e2822d19 	add	r2, r2, #1600	; 0x640
 138:	1afffff1 	bne	104 <console_draw_char+0x34>
 13c:	e8bd81f0 	pop	{r4, r5, r6, r7, r8, pc}

00000140 <console_putc>:
 140:	e350000a 	cmp	r0, #10
 144:	e92d47f0 	push	{r4, r5, r6, r7, r8, r9, sl, lr}
 148:	e1a05000 	mov	r5, r0
 14c:	0a000068 	beq	2f4 <console_putc+0x1b4>
 150:	e350000d 	cmp	r0, #13
 154:	0a000060 	beq	2dc <console_putc+0x19c>
 158:	e3004000 	movw	r4, #0
 15c:	e3500009 	cmp	r0, #9
 160:	e3404000 	movt	r4, #0
 164:	e1d430b2 	ldrh	r3, [r4, #2]
 168:	02833004 	addeq	r3, r3, #4
 16c:	01c430b2 	strheq	r3, [r4, #2]
 170:	1a000001 	bne	17c <console_putc+0x3c>
 174:	e1a00005 	mov	r0, r5
 178:	e8bd87f0 	pop	{r4, r5, r6, r7, r8, r9, sl, pc}
 17c:	e1d420b0 	ldrh	r2, [r4]
 180:	e3a0ce32 	mov	ip, #800	; 0x320
 184:	e1a03183 	lsl	r3, r3, #3
 188:	e3001000 	movw	r1, #0
 18c:	e1a02202 	lsl	r2, r2, #4
 190:	e3000000 	movw	r0, #0
 194:	e022329c 	mla	r2, ip, r2, r3
 198:	e3401000 	movt	r1, #0
 19c:	e300c000 	movw	ip, #0
 1a0:	e3400000 	movt	r0, #0
 1a4:	e0811205 	add	r1, r1, r5, lsl #4
 1a8:	e1a02082 	lsl	r2, r2, #1
 1ac:	e2819010 	add	r9, r1, #16
 1b0:	e1d080b0 	ldrh	r8, [r0]
 1b4:	e340c000 	movt	ip, #0
 1b8:	e1d470b4 	ldrh	r7, [r4, #4]
 1bc:	e4d10001 	ldrb	r0, [r1], #1
 1c0:	e1a03002 	mov	r3, r2
 1c4:	e282e010 	add	lr, r2, #16
 1c8:	e59c6000 	ldr	r6, [ip]
 1cc:	e3100001 	tst	r0, #1
 1d0:	e1a000a0 	lsr	r0, r0, #1
 1d4:	118680b3 	strhne	r8, [r6, r3]
 1d8:	018670b3 	strheq	r7, [r6, r3]
 1dc:	e2833002 	add	r3, r3, #2
 1e0:	e153000e 	cmp	r3, lr
 1e4:	1afffff7 	bne	1c8 <console_putc+0x88>
 1e8:	e1510009 	cmp	r1, r9
 1ec:	e2822d19 	add	r2, r2, #1600	; 0x640
 1f0:	1afffff1 	bne	1bc <console_putc+0x7c>
 1f4:	e1d430b2 	ldrh	r3, [r4, #2]
 1f8:	e2833001 	add	r3, r3, #1
 1fc:	e6ff3073 	uxth	r3, r3
 200:	e1c430b2 	strh	r3, [r4, #2]
 204:	e3530064 	cmp	r3, #100	; 0x64
 208:	1affffd9 	bne	174 <console_putc+0x34>
 20c:	e1d430b0 	ldrh	r3, [r4]
 210:	e3a02000 	mov	r2, #0
 214:	e1c420b2 	strh	r2, [r4, #2]
 218:	e2833001 	add	r3, r3, #1
 21c:	e6ff3073 	uxth	r3, r3
 220:	e1c430b0 	strh	r3, [r4]
 224:	e353001e 	cmp	r3, #30
 228:	1affffd1 	bne	174 <console_putc+0x34>
 22c:	e1d420b6 	ldrh	r2, [r4, #6]
 230:	e3520000 	cmp	r2, #0
 234:	1a00006f 	bne	3f8 <console_putc+0x2b8>
 238:	e3006000 	movw	r6, #0
 23c:	e3052aa0 	movw	r2, #23200	; 0x5aa0
 240:	e3406000 	movt	r6, #0
 244:	e5960000 	ldr	r0, [r6]
 248:	e2801b19 	add	r1, r0, #25600	; 0x6400
 24c:	ebfffffe 	bl	0 <memcpy_blk>
 250:	e5960000 	ldr	r0, [r6]
 254:	e3a01000 	mov	r1, #0
 258:	e1d420b4 	ldrh	r2, [r4, #4]
 25c:	e2803ab5 	add	r3, r0, #741376	; 0xb5000
 260:	e2800abb 	add	r0, r0, #765952	; 0xbb000
 264:	e2833b01 	add	r3, r3, #1024	; 0x400
 268:	e2800e7e 	add	r0, r0, #2016	; 0x7e0
 26c:	e1822802 	orr	r2, r2, r2, lsl #16
 270:	e5832000 	str	r2, [r3]
 274:	e1a0c003 	mov	ip, r3
 278:	e5832004 	str	r2, [r3, #4]
 27c:	e2811008 	add	r1, r1, #8
 280:	e5832008 	str	r2, [r3, #8]
 284:	e6ff1071 	uxth	r1, r1
 288:	e583200c 	str	r2, [r3, #12]
 28c:	e5832010 	str	r2, [r3, #16]
 290:	e5832014 	str	r2, [r3, #20]
 294:	e5832018 	str	r2, [r3, #24]
 298:	f5d3f088 	pld	[r3, #136]	; 0x88
 29c:	e2833020 	add	r3, r3, #32
 2a0:	e1530000 	cmp	r3, r0
 2a4:	e58c201c 	str	r2, [ip, #28]
 2a8:	1afffff0 	bne	270 <console_putc+0x130>
 2ac:	e2611d63 	rsb	r1, r1, #6336	; 0x18c0
 2b0:	e281103f 	add	r1, r1, #63	; 0x3f
 2b4:	e6ff1071 	uxth	r1, r1
 2b8:	e2811001 	add	r1, r1, #1
 2bc:	e0831101 	add	r1, r3, r1, lsl #2
 2c0:	e4832004 	str	r2, [r3], #4
 2c4:	e1510003 	cmp	r1, r3
 2c8:	1afffffc 	bne	2c0 <console_putc+0x180>
 2cc:	e1d430b0 	ldrh	r3, [r4]
 2d0:	e2433001 	sub	r3, r3, #1
 2d4:	e1c430b0 	strh	r3, [r4]
 2d8:	eaffffa5 	b	174 <console_putc+0x34>
 2dc:	e3003000 	movw	r3, #0
 2e0:	e3a02000 	mov	r2, #0
 2e4:	e3403000 	movt	r3, #0
 2e8:	e1a00005 	mov	r0, r5
 2ec:	e1c320b2 	strh	r2, [r3, #2]
 2f0:	e8bd87f0 	pop	{r4, r5, r6, r7, r8, r9, sl, pc}
 2f4:	e3004000 	movw	r4, #0
 2f8:	e3a02000 	mov	r2, #0
 2fc:	e3404000 	movt	r4, #0
 300:	e1d430b0 	ldrh	r3, [r4]
 304:	e1c420b2 	strh	r2, [r4, #2]
 308:	e2833001 	add	r3, r3, #1
 30c:	e6ff3073 	uxth	r3, r3
 310:	e1c430b0 	strh	r3, [r4]
 314:	e353001e 	cmp	r3, #30
 318:	1affff95 	bne	174 <console_putc+0x34>
 31c:	e1d400b6 	ldrh	r0, [r4, #6]
 320:	e1500002 	cmp	r0, r2
 324:	0a00002d 	beq	3e0 <console_putc+0x2a0>
 328:	e3a02cce 	mov	r2, #52736	; 0xce00
 32c:	e3006000 	movw	r6, #0
 330:	e34f2fff 	movt	r2, #65535	; 0xffff
 334:	e3a01b19 	mov	r1, #25600	; 0x6400
 338:	e0020092 	mul	r2, r2, r0
 33c:	e3406000 	movt	r6, #0
 340:	e2822a5a 	add	r2, r2, #368640	; 0x5a000
 344:	e5963000 	ldr	r3, [r6]
 348:	e2822c0a 	add	r2, r2, #2560	; 0xa00
 34c:	e0203091 	mla	r0, r1, r0, r3
 350:	e1a020c2 	asr	r2, r2, #1
 354:	e0801001 	add	r1, r0, r1
 358:	e1a021a2 	lsr	r2, r2, #3
 35c:	ebfffffe 	bl	0 <memcpy_blk>
 360:	e5960000 	ldr	r0, [r6]
 364:	e3a01000 	mov	r1, #0
 368:	e1d420b4 	ldrh	r2, [r4, #4]
 36c:	e2803ab5 	add	r3, r0, #741376	; 0xb5000
 370:	e2800abb 	add	r0, r0, #765952	; 0xbb000
 374:	e2833b01 	add	r3, r3, #1024	; 0x400
 378:	e2800e7e 	add	r0, r0, #2016	; 0x7e0
 37c:	e1822802 	orr	r2, r2, r2, lsl #16
 380:	e5832000 	str	r2, [r3]
 384:	e1a0c003 	mov	ip, r3
 388:	e5832004 	str	r2, [r3, #4]
 38c:	e2811008 	add	r1, r1, #8
 390:	e5832008 	str	r2, [r3, #8]
 394:	e6ff1071 	uxth	r1, r1
 398:	e583200c 	str	r2, [r3, #12]
 39c:	e5832010 	str	r2, [r3, #16]
 3a0:	e5832014 	str	r2, [r3, #20]
 3a4:	e5832018 	str	r2, [r3, #24]
 3a8:	f5d3f088 	pld	[r3, #136]	; 0x88
 3ac:	e2833020 	add	r3, r3, #32
 3b0:	e1500003 	cmp	r0, r3
 3b4:	e58c201c 	str	r2, [ip, #28]
 3b8:	1afffff0 	bne	380 <console_putc+0x240>
 3bc:	e2611d63 	rsb	r1, r1, #6336	; 0x18c0
 3c0:	e281103f 	add	r1, r1, #63	; 0x3f
 3c4:	e6ff1071 	uxth	r1, r1
 3c8:	e2811001 	add	r1, r1, #1
 3cc:	e0831101 	add	r1, r3, r1, lsl #2
 3d0:	e4832004 	str	r2, [r3], #4
 3d4:	e1530001 	cmp	r3, r1
 3d8:	1afffffc 	bne	3d0 <console_putc+0x290>
 3dc:	eaffffba 	b	2cc <console_putc+0x18c>
 3e0:	e3006000 	movw	r6, #0
 3e4:	e3052aa0 	movw	r2, #23200	; 0x5aa0
 3e8:	e3406000 	movt	r6, #0
 3ec:	e5960000 	ldr	r0, [r6]
 3f0:	e2801b19 	add	r1, r0, #25600	; 0x6400
 3f4:	eaffffd8 	b	35c <console_putc+0x21c>
 3f8:	e3a03cce 	mov	r3, #52736	; 0xce00
 3fc:	e3006000 	movw	r6, #0
 400:	e34f3fff 	movt	r3, #65535	; 0xffff
 404:	e3a01b19 	mov	r1, #25600	; 0x6400
 408:	e0030293 	mul	r3, r3, r2
 40c:	e3406000 	movt	r6, #0
 410:	e2833a5a 	add	r3, r3, #368640	; 0x5a000
 414:	e5960000 	ldr	r0, [r6]
 418:	e2833c0a 	add	r3, r3, #2560	; 0xa00
 41c:	e0200291 	mla	r0, r1, r2, r0
 420:	e1a030c3 	asr	r3, r3, #1
 424:	e0801001 	add	r1, r0, r1
 428:	e1a021a3 	lsr	r2, r3, #3
 42c:	eaffff86 	b	24c <console_putc+0x10c>

00000430 <console_puts>:
 430:	e92d4070 	push	{r4, r5, r6, lr}
 434:	e1a04000 	mov	r4, r0
 438:	e4d40001 	ldrb	r0, [r4], #1
 43c:	e3500000 	cmp	r0, #0
 440:	0a000007 	beq	464 <console_puts+0x34>
 444:	e3a05000 	mov	r5, #0
 448:	e2855001 	add	r5, r5, #1
 44c:	ebfffffe 	bl	140 <console_putc>
 450:	e4d40001 	ldrb	r0, [r4], #1
 454:	e3500000 	cmp	r0, #0
 458:	1afffffa 	bne	448 <console_puts+0x18>
 45c:	e1a00005 	mov	r0, r5
 460:	e8bd8070 	pop	{r4, r5, r6, pc}
 464:	e1a05000 	mov	r5, r0
 468:	e1a00005 	mov	r0, r5
 46c:	e8bd8070 	pop	{r4, r5, r6, pc}

00000470 <console_write>:
 470:	e92d4070 	push	{r4, r5, r6, lr}
 474:	e1a04000 	mov	r4, r0
 478:	e1a05000 	mov	r5, r0
 47c:	e4d40001 	ldrb	r0, [r4], #1
 480:	e3500000 	cmp	r0, #0
 484:	08bd8070 	popeq	{r4, r5, r6, pc}
 488:	e3510000 	cmp	r1, #0
 48c:	08bd8070 	popeq	{r4, r5, r6, pc}
 490:	e2811001 	add	r1, r1, #1
 494:	e0855001 	add	r5, r5, r1
 498:	ebfffffe 	bl	140 <console_putc>
 49c:	e4d40001 	ldrb	r0, [r4], #1
 4a0:	e3500000 	cmp	r0, #0
 4a4:	08bd8070 	popeq	{r4, r5, r6, pc}
 4a8:	e1550004 	cmp	r5, r4
 4ac:	1afffff9 	bne	498 <console_write+0x28>
 4b0:	e8bd8070 	pop	{r4, r5, r6, pc}

000004b4 <console_error>:
 4b4:	e92d47f0 	push	{r4, r5, r6, r7, r8, r9, sl, lr}
 4b8:	e3007000 	movw	r7, #0
 4bc:	e3407000 	movt	r7, #0
 4c0:	e3006000 	movw	r6, #0
 4c4:	e3406000 	movt	r6, #0
 4c8:	e3a02b3e 	mov	r2, #63488	; 0xf800
 4cc:	e1d790b0 	ldrh	r9, [r7]
 4d0:	e3a03000 	mov	r3, #0
 4d4:	e1d680b4 	ldrh	r8, [r6, #4]
 4d8:	e1a05000 	mov	r5, r0
 4dc:	e59fa078 	ldr	sl, [pc, #120]	; 55c <console_error+0xa8>
 4e0:	e3a04072 	mov	r4, #114	; 0x72
 4e4:	e1c720b0 	strh	r2, [r7]
 4e8:	e3a00045 	mov	r0, #69	; 0x45
 4ec:	e1c630b4 	strh	r3, [r6, #4]
 4f0:	ea000000 	b	4f8 <console_error+0x44>
 4f4:	e5fa4001 	ldrb	r4, [sl, #1]!
 4f8:	ebfffffe 	bl	140 <console_putc>
 4fc:	e3540000 	cmp	r4, #0
 500:	e1a00004 	mov	r0, r4
 504:	1afffffa 	bne	4f4 <console_error+0x40>
 508:	e4d50001 	ldrb	r0, [r5], #1
 50c:	e3500000 	cmp	r0, #0
 510:	0a000004 	beq	528 <console_error+0x74>
 514:	e2844001 	add	r4, r4, #1
 518:	ebfffffe 	bl	140 <console_putc>
 51c:	e4d50001 	ldrb	r0, [r5], #1
 520:	e3500000 	cmp	r0, #0
 524:	1afffffa 	bne	514 <console_error+0x60>
 528:	e59fa030 	ldr	sl, [pc, #48]	; 560 <console_error+0xac>
 52c:	e3a0500a 	mov	r5, #10
 530:	e3a0003e 	mov	r0, #62	; 0x3e
 534:	ea000000 	b	53c <console_error+0x88>
 538:	e5fa5001 	ldrb	r5, [sl, #1]!
 53c:	ebfffffe 	bl	140 <console_putc>
 540:	e3550000 	cmp	r5, #0
 544:	e1a00005 	mov	r0, r5
 548:	1afffffa 	bne	538 <console_error+0x84>
 54c:	e1c790b0 	strh	r9, [r7]
 550:	e1a00004 	mov	r0, r4
 554:	e1c680b4 	strh	r8, [r6, #4]
 558:	e8bd87f0 	pop	{r4, r5, r6, r7, r8, r9, sl, pc}
 55c:	00000001 	andeq	r0, r0, r1
 560:	00000001 	andeq	r0, r0, r1

00000564 <console_status>:
 564:	e92d4ff0 	push	{r4, r5, r6, r7, r8, r9, sl, fp, lr}
 568:	e3006000 	movw	r6, #0
 56c:	e3406000 	movt	r6, #0
 570:	e24dd00c 	sub	sp, sp, #12
 574:	e3005000 	movw	r5, #0
 578:	e1a04001 	mov	r4, r1
 57c:	e3405000 	movt	r5, #0
 580:	e3a0b000 	mov	fp, #0
 584:	e58d0004 	str	r0, [sp, #4]
 588:	e3a0001d 	mov	r0, #29
 58c:	e1d680b0 	ldrh	r8, [r6]
 590:	e1d570b4 	ldrh	r7, [r5, #4]
 594:	e1d5a0b0 	ldrh	sl, [r5]
 598:	e1d590b2 	ldrh	r9, [r5, #2]
 59c:	ebfffe97 	bl	0 <console_clear_line.part.2>
 5a0:	e4d40001 	ldrb	r0, [r4], #1
 5a4:	e59d3004 	ldr	r3, [sp, #4]
 5a8:	e150000b 	cmp	r0, fp
 5ac:	e1c630b0 	strh	r3, [r6]
 5b0:	e1c5b0b4 	strh	fp, [r5, #4]
 5b4:	0a00000b 	beq	5e8 <console_status+0x84>
 5b8:	e28bb001 	add	fp, fp, #1
 5bc:	ebfffffe 	bl	140 <console_putc>
 5c0:	e4d40001 	ldrb	r0, [r4], #1
 5c4:	e3500000 	cmp	r0, #0
 5c8:	1afffffa 	bne	5b8 <console_status+0x54>
 5cc:	e1c5a0b0 	strh	sl, [r5]
 5d0:	e1a0000b 	mov	r0, fp
 5d4:	e1c590b2 	strh	r9, [r5, #2]
 5d8:	e1c680b0 	strh	r8, [r6]
 5dc:	e1c570b4 	strh	r7, [r5, #4]
 5e0:	e28dd00c 	add	sp, sp, #12
 5e4:	e8bd8ff0 	pop	{r4, r5, r6, r7, r8, r9, sl, fp, pc}
 5e8:	e1a0b000 	mov	fp, r0
 5ec:	eafffff6 	b	5cc <console_status+0x68>

000005f0 <console_puthex>:
 5f0:	e92d4010 	push	{r4, lr}
 5f4:	e1a04000 	mov	r4, r0
 5f8:	e1a00220 	lsr	r0, r0, #4
 5fc:	e204400f 	and	r4, r4, #15
 600:	e3500009 	cmp	r0, #9
 604:	92800030 	addls	r0, r0, #48	; 0x30
 608:	82800037 	addhi	r0, r0, #55	; 0x37
 60c:	ebfffffe 	bl	140 <console_putc>
 610:	e3540009 	cmp	r4, #9
 614:	92840030 	addls	r0, r4, #48	; 0x30
 618:	82840037 	addhi	r0, r4, #55	; 0x37
 61c:	e8bd4010 	pop	{r4, lr}
 620:	eafffffe 	b	140 <console_putc>

00000624 <console_puthex_fg_bg>:
 624:	e92d41f0 	push	{r4, r5, r6, r7, r8, lr}
 628:	e1a04000 	mov	r4, r0
 62c:	e3006000 	movw	r6, #0
 630:	e3005000 	movw	r5, #0
 634:	e1a00220 	lsr	r0, r0, #4
 638:	e204400f 	and	r4, r4, #15
 63c:	e3406000 	movt	r6, #0
 640:	e3500009 	cmp	r0, #9
 644:	e3405000 	movt	r5, #0
 648:	92800030 	addls	r0, r0, #48	; 0x30
 64c:	e1d680b0 	ldrh	r8, [r6]
 650:	82800037 	addhi	r0, r0, #55	; 0x37
 654:	e1d570b4 	ldrh	r7, [r5, #4]
 658:	e1c610b0 	strh	r1, [r6]
 65c:	e1c520b4 	strh	r2, [r5, #4]
 660:	ebfffffe 	bl	140 <console_putc>
 664:	e3540009 	cmp	r4, #9
 668:	92840030 	addls	r0, r4, #48	; 0x30
 66c:	82840037 	addhi	r0, r4, #55	; 0x37
 670:	ebfffffe 	bl	140 <console_putc>
 674:	e1c680b0 	strh	r8, [r6]
 678:	e1c570b4 	strh	r7, [r5, #4]
 67c:	e8bd81f0 	pop	{r4, r5, r6, r7, r8, pc}

00000680 <console_putpct_fg_bg>:
 680:	e92d47f0 	push	{r4, r5, r6, r7, r8, r9, sl, lr}
 684:	e3007000 	movw	r7, #0
 688:	e3407000 	movt	r7, #0
 68c:	e3006000 	movw	r6, #0
 690:	e3406000 	movt	r6, #0
 694:	e3500063 	cmp	r0, #99	; 0x63
 698:	e1d790b0 	ldrh	r9, [r7]
 69c:	e1d680b4 	ldrh	r8, [r6, #4]
 6a0:	e1c710b0 	strh	r1, [r7]
 6a4:	e1c620b4 	strh	r2, [r6, #4]
 6a8:	9a00000b 	bls	6dc <console_putpct_fg_bg+0x5c>
 6ac:	e59f505c 	ldr	r5, [pc, #92]	; 710 <console_putpct_fg_bg+0x90>
 6b0:	e3a04025 	mov	r4, #37	; 0x25
 6b4:	e1a00004 	mov	r0, r4
 6b8:	ea000000 	b	6c0 <console_putpct_fg_bg+0x40>
 6bc:	e5f54001 	ldrb	r4, [r5, #1]!
 6c0:	ebfffffe 	bl	140 <console_putc>
 6c4:	e3540000 	cmp	r4, #0
 6c8:	e1a00004 	mov	r0, r4
 6cc:	1afffffa 	bne	6bc <console_putpct_fg_bg+0x3c>
 6d0:	e1c790b0 	strh	r9, [r7]
 6d4:	e1c680b4 	strh	r8, [r6, #4]
 6d8:	e8bd87f0 	pop	{r4, r5, r6, r7, r8, r9, sl, pc}
 6dc:	e30c4ccd 	movw	r4, #52429	; 0xcccd
 6e0:	e1a05000 	mov	r5, r0
 6e4:	e34c4ccc 	movt	r4, #52428	; 0xcccc
 6e8:	e0843094 	umull	r3, r4, r4, r0
 6ec:	e1a041a4 	lsr	r4, r4, #3
 6f0:	e2840030 	add	r0, r4, #48	; 0x30
 6f4:	ebfffffe 	bl	140 <console_putc>
 6f8:	e3a0000a 	mov	r0, #10
 6fc:	e0605490 	mls	r0, r0, r4, r5
 700:	e6ef0070 	uxtb	r0, r0
 704:	e2800030 	add	r0, r0, #48	; 0x30
 708:	ebfffffe 	bl	140 <console_putc>
 70c:	eaffffef 	b	6d0 <console_putpct_fg_bg+0x50>
 710:	00000001 	andeq	r0, r0, r1

00000714 <console_put3dec_fg_bg>:
 714:	e92d47f0 	push	{r4, r5, r6, r7, r8, r9, sl, lr}
 718:	e308551f 	movw	r5, #34079	; 0x851f
 71c:	e34551eb 	movt	r5, #20971	; 0x51eb
 720:	e3006000 	movw	r6, #0
 724:	e0853095 	umull	r3, r5, r5, r0
 728:	e3406000 	movt	r6, #0
 72c:	e3007000 	movw	r7, #0
 730:	e1a052a5 	lsr	r5, r5, #5
 734:	e1a0a000 	mov	sl, r0
 738:	e3407000 	movt	r7, #0
 73c:	e2850030 	add	r0, r5, #48	; 0x30
 740:	e1d680b0 	ldrh	r8, [r6]
 744:	e30c4ccd 	movw	r4, #52429	; 0xcccd
 748:	e1c610b0 	strh	r1, [r6]
 74c:	e1d790b4 	ldrh	r9, [r7, #4]
 750:	e1c720b4 	strh	r2, [r7, #4]
 754:	ebfffffe 	bl	140 <console_putc>
 758:	e1a00105 	lsl	r0, r5, #2
 75c:	e0850000 	add	r0, r5, r0
 760:	e34c4ccc 	movt	r4, #52428	; 0xcccc
 764:	e0655180 	rsb	r5, r5, r0, lsl #3
 768:	e08a5105 	add	r5, sl, r5, lsl #2
 76c:	e6ef5075 	uxtb	r5, r5
 770:	e0843594 	umull	r3, r4, r4, r5
 774:	e1a041a4 	lsr	r4, r4, #3
 778:	e2840030 	add	r0, r4, #48	; 0x30
 77c:	ebfffffe 	bl	140 <console_putc>
 780:	e3a0000a 	mov	r0, #10
 784:	e0605490 	mls	r0, r0, r4, r5
 788:	e6ef0070 	uxtb	r0, r0
 78c:	e2800030 	add	r0, r0, #48	; 0x30
 790:	ebfffffe 	bl	140 <console_putc>
 794:	e1c680b0 	strh	r8, [r6]
 798:	e1c790b4 	strh	r9, [r7, #4]
 79c:	e8bd87f0 	pop	{r4, r5, r6, r7, r8, r9, sl, pc}

000007a0 <console_newline>:
 7a0:	e92d4070 	push	{r4, r5, r6, lr}
 7a4:	e3004000 	movw	r4, #0
 7a8:	e3404000 	movt	r4, #0
 7ac:	e3a02000 	mov	r2, #0
 7b0:	e1d430b0 	ldrh	r3, [r4]
 7b4:	e1c420b2 	strh	r2, [r4, #2]
 7b8:	e2833001 	add	r3, r3, #1
 7bc:	e6ff3073 	uxth	r3, r3
 7c0:	e1c430b0 	strh	r3, [r4]
 7c4:	e353001e 	cmp	r3, #30
 7c8:	18bd8070 	popne	{r4, r5, r6, pc}
 7cc:	e1d400b6 	ldrh	r0, [r4, #6]
 7d0:	e1500002 	cmp	r0, r2
 7d4:	0a000030 	beq	89c <console_newline+0xfc>
 7d8:	e3a02cce 	mov	r2, #52736	; 0xce00
 7dc:	e3005000 	movw	r5, #0
 7e0:	e34f2fff 	movt	r2, #65535	; 0xffff
 7e4:	e3a01b19 	mov	r1, #25600	; 0x6400
 7e8:	e0020092 	mul	r2, r2, r0
 7ec:	e3405000 	movt	r5, #0
 7f0:	e2822a5a 	add	r2, r2, #368640	; 0x5a000
 7f4:	e5953000 	ldr	r3, [r5]
 7f8:	e2822c0a 	add	r2, r2, #2560	; 0xa00
 7fc:	e0203091 	mla	r0, r1, r0, r3
 800:	e1a020c2 	asr	r2, r2, #1
 804:	e0801001 	add	r1, r0, r1
 808:	e1a021a2 	lsr	r2, r2, #3
 80c:	ebfffffe 	bl	0 <memcpy_blk>
 810:	e5950000 	ldr	r0, [r5]
 814:	e3a01000 	mov	r1, #0
 818:	e1d420b4 	ldrh	r2, [r4, #4]
 81c:	e2803ab5 	add	r3, r0, #741376	; 0xb5000
 820:	e2800abb 	add	r0, r0, #765952	; 0xbb000
 824:	e2833b01 	add	r3, r3, #1024	; 0x400
 828:	e2800e7e 	add	r0, r0, #2016	; 0x7e0
 82c:	e1822802 	orr	r2, r2, r2, lsl #16
 830:	e5832000 	str	r2, [r3]
 834:	e1a0c003 	mov	ip, r3
 838:	e5832004 	str	r2, [r3, #4]
 83c:	e2811008 	add	r1, r1, #8
 840:	e5832008 	str	r2, [r3, #8]
 844:	e6ff1071 	uxth	r1, r1
 848:	e583200c 	str	r2, [r3, #12]
 84c:	e5832010 	str	r2, [r3, #16]
 850:	e5832014 	str	r2, [r3, #20]
 854:	e5832018 	str	r2, [r3, #24]
 858:	f5d3f088 	pld	[r3, #136]	; 0x88
 85c:	e2833020 	add	r3, r3, #32
 860:	e1530000 	cmp	r3, r0
 864:	e58c201c 	str	r2, [ip, #28]
 868:	1afffff0 	bne	830 <console_newline+0x90>
 86c:	e2611d63 	rsb	r1, r1, #6336	; 0x18c0
 870:	e281103f 	add	r1, r1, #63	; 0x3f
 874:	e6ff1071 	uxth	r1, r1
 878:	e2811001 	add	r1, r1, #1
 87c:	e0831101 	add	r1, r3, r1, lsl #2
 880:	e4832004 	str	r2, [r3], #4
 884:	e1530001 	cmp	r3, r1
 888:	1afffffc 	bne	880 <console_newline+0xe0>
 88c:	e1d430b0 	ldrh	r3, [r4]
 890:	e2433001 	sub	r3, r3, #1
 894:	e1c430b0 	strh	r3, [r4]
 898:	e8bd8070 	pop	{r4, r5, r6, pc}
 89c:	e3005000 	movw	r5, #0
 8a0:	e3052aa0 	movw	r2, #23200	; 0x5aa0
 8a4:	e3405000 	movt	r5, #0
 8a8:	e5950000 	ldr	r0, [r5]
 8ac:	e2801b19 	add	r1, r0, #25600	; 0x6400
 8b0:	eaffffd5 	b	80c <console_newline+0x6c>

000008b4 <console_clear>:
 8b4:	e3003000 	movw	r3, #0
 8b8:	e3000000 	movw	r0, #0
 8bc:	e3403000 	movt	r3, #0
 8c0:	e3400000 	movt	r0, #0
 8c4:	e5933000 	ldr	r3, [r3]
 8c8:	e92d4010 	push	{r4, lr}
 8cc:	e283cabb 	add	ip, r3, #765952	; 0xbb000
 8d0:	e1d020b4 	ldrh	r2, [r0, #4]
 8d4:	e3a04b37 	mov	r4, #56320	; 0xdc00
 8d8:	e3404005 	movt	r4, #5
 8dc:	e3a0e000 	mov	lr, #0
 8e0:	e28cce7e 	add	ip, ip, #2016	; 0x7e0
 8e4:	e1c320b0 	strh	r2, [r3]
 8e8:	e1a01003 	mov	r1, r3
 8ec:	e1c320b2 	strh	r2, [r3, #2]
 8f0:	e28ee010 	add	lr, lr, #16
 8f4:	e1c320b4 	strh	r2, [r3, #4]
 8f8:	e1c320b6 	strh	r2, [r3, #6]
 8fc:	e1c320b8 	strh	r2, [r3, #8]
 900:	e1c320ba 	strh	r2, [r3, #10]
 904:	e1c320bc 	strh	r2, [r3, #12]
 908:	e1c320be 	strh	r2, [r3, #14]
 90c:	e1c321b0 	strh	r2, [r3, #16]
 910:	e1c321b2 	strh	r2, [r3, #18]
 914:	e1c321b4 	strh	r2, [r3, #20]
 918:	e1c321b6 	strh	r2, [r3, #22]
 91c:	e1c321b8 	strh	r2, [r3, #24]
 920:	e1c321ba 	strh	r2, [r3, #26]
 924:	e1c321bc 	strh	r2, [r3, #28]
 928:	f5d3f044 	pld	[r3, #68]	; 0x44
 92c:	e2833020 	add	r3, r3, #32
 930:	e15c0003 	cmp	ip, r3
 934:	e1c121be 	strh	r2, [r1, #30]
 938:	e044100e 	sub	r1, r4, lr
 93c:	1affffe8 	bne	8e4 <console_clear+0x30>
 940:	e0831081 	add	r1, r3, r1, lsl #1
 944:	e0c320b2 	strh	r2, [r3], #2
 948:	e1530001 	cmp	r3, r1
 94c:	1afffffc 	bne	944 <console_clear+0x90>
 950:	e3a03000 	mov	r3, #0
 954:	e1c030b2 	strh	r3, [r0, #2]
 958:	e1c030b0 	strh	r3, [r0]
 95c:	e8bd8010 	pop	{r4, pc}

00000960 <console_set_cursor>:
 960:	e3500064 	cmp	r0, #100	; 0x64
 964:	e3003000 	movw	r3, #0
 968:	e3403000 	movt	r3, #0
 96c:	83a00000 	movhi	r0, #0
 970:	e351001e 	cmp	r1, #30
 974:	e1c300b2 	strh	r0, [r3, #2]
 978:	83a01000 	movhi	r1, #0
 97c:	e1c310b0 	strh	r1, [r3]
 980:	e12fff1e 	bx	lr

00000984 <console_save_cursor>:
 984:	e3003000 	movw	r3, #0
 988:	e3002000 	movw	r2, #0
 98c:	e3403000 	movt	r3, #0
 990:	e3402000 	movt	r2, #0
 994:	e52de004 	push	{lr}		; (str lr, [sp, #-4]!)
 998:	e1d3c0b2 	ldrh	ip, [r3, #2]
 99c:	e1d3e0b0 	ldrh	lr, [r3]
 9a0:	e1d300b4 	ldrh	r0, [r3, #4]
 9a4:	e1d210b0 	ldrh	r1, [r2]
 9a8:	e1c3e0b8 	strh	lr, [r3, #8]
 9ac:	e1c3c0ba 	strh	ip, [r3, #10]
 9b0:	e1c300bc 	strh	r0, [r3, #12]
 9b4:	e1c210b2 	strh	r1, [r2, #2]
 9b8:	e49df004 	pop	{pc}		; (ldr pc, [sp], #4)

000009bc <console_restore_cursor>:
 9bc:	e3003000 	movw	r3, #0
 9c0:	e3002000 	movw	r2, #0
 9c4:	e3403000 	movt	r3, #0
 9c8:	e3402000 	movt	r2, #0
 9cc:	e52de004 	push	{lr}		; (str lr, [sp, #-4]!)
 9d0:	e1d3c0ba 	ldrh	ip, [r3, #10]
 9d4:	e1d3e0b8 	ldrh	lr, [r3, #8]
 9d8:	e1d300bc 	ldrh	r0, [r3, #12]
 9dc:	e1d210b2 	ldrh	r1, [r2, #2]
 9e0:	e1c3e0b0 	strh	lr, [r3]
 9e4:	e1c3c0b2 	strh	ip, [r3, #2]
 9e8:	e1c300b4 	strh	r0, [r3, #4]
 9ec:	e1c210b0 	strh	r1, [r2]
 9f0:	e49df004 	pop	{pc}		; (ldr pc, [sp], #4)

000009f4 <console_save_color>:
 9f4:	e3002000 	movw	r2, #0
 9f8:	e3003000 	movw	r3, #0
 9fc:	e3402000 	movt	r2, #0
 a00:	e3403000 	movt	r3, #0
 a04:	e1d200b4 	ldrh	r0, [r2, #4]
 a08:	e1d310b0 	ldrh	r1, [r3]
 a0c:	e1c200bc 	strh	r0, [r2, #12]
 a10:	e1c310b2 	strh	r1, [r3, #2]
 a14:	e12fff1e 	bx	lr

00000a18 <console_restore_color>:
 a18:	e3002000 	movw	r2, #0
 a1c:	e3003000 	movw	r3, #0
 a20:	e3402000 	movt	r2, #0
 a24:	e3403000 	movt	r3, #0
 a28:	e1d200bc 	ldrh	r0, [r2, #12]
 a2c:	e1d310b2 	ldrh	r1, [r3, #2]
 a30:	e1c200b4 	strh	r0, [r2, #4]
 a34:	e1c310b0 	strh	r1, [r3]
 a38:	e12fff1e 	bx	lr

00000a3c <console_set_fg_color>:
 a3c:	e3003000 	movw	r3, #0
 a40:	e3403000 	movt	r3, #0
 a44:	e1c300b0 	strh	r0, [r3]
 a48:	e12fff1e 	bx	lr

00000a4c <console_set_bg_color>:
 a4c:	e3003000 	movw	r3, #0
 a50:	e3403000 	movt	r3, #0
 a54:	e1c300b4 	strh	r0, [r3, #4]
 a58:	e12fff1e 	bx	lr

00000a5c <console_set_fg_bg_color>:
 a5c:	e3002000 	movw	r2, #0
 a60:	e3003000 	movw	r3, #0
 a64:	e3402000 	movt	r2, #0
 a68:	e3403000 	movt	r3, #0
 a6c:	e1c200b0 	strh	r0, [r2]
 a70:	e1c310b4 	strh	r1, [r3, #4]
 a74:	e12fff1e 	bx	lr

00000a78 <console_clear_line>:
 a78:	e350001e 	cmp	r0, #30
 a7c:	812fff1e 	bxhi	lr
 a80:	eafffd5e 	b	0 <console_clear_line.part.2>

Disassembly of section .data:

00000000 <cur_fore>:
   0:	 			; <UNDEFINED> instruction: 0xffffffff

00000002 <saved_fore>:
   2:	Address 0x0000000000000002 is out of bounds.


Disassembly of section .bss:

00000000 <current_y>:
	...

00000002 <current_x>:
	...

00000004 <cur_back>:
	...

00000006 <top_row>:
	...

00000008 <saved_y>:
	...

0000000a <saved_x>:
	...

0000000c <saved_back>:
	...

Disassembly of section .rodata.str1.4:

00000000 <.LC0>:
   0:	6f727245 	svcvs	0x00727245
   4:	003c2072 	eorseq	r2, ip, r2, ror r0

00000008 <.LC1>:
   8:	00000a3e 	andeq	r0, r0, lr, lsr sl

0000000c <.LC2>:
   c:	Address 0x000000000000000c is out of bounds.


Disassembly of section .comment:

00000000 <.comment>:
   0:	43434700 	movtmi	r4, #14080	; 0x3700
   4:	4728203a 			; <UNDEFINED> instruction: 0x4728203a
   8:	5420554e 	strtpl	r5, [r0], #-1358	; 0xfffffab2
   c:	736c6f6f 	cmnvc	ip, #444	; 0x1bc
  10:	726f6620 	rsbvc	r6, pc, #32, 12	; 0x2000000
  14:	6d724120 	ldfvse	f4, [r2, #-128]!	; 0xffffff80
  18:	626d4520 	rsbvs	r4, sp, #32, 10	; 0x8000000
  1c:	65646465 	strbvs	r6, [r4, #-1125]!	; 0xfffffb9b
  20:	72502064 	subsvc	r2, r0, #100	; 0x64
  24:	7365636f 	cmnvc	r5, #-1140850687	; 0xbc000001
  28:	73726f73 	cmnvc	r2, #460	; 0x1cc
  2c:	322d3820 	eorcc	r3, sp, #32, 16	; 0x200000
  30:	2d393130 	ldfcss	f3, [r9, #-192]!	; 0xffffff40
  34:	752d3371 	strvc	r3, [sp, #-881]!	; 0xfffffc8f
  38:	74616470 	strbtvc	r6, [r1], #-1136	; 0xfffffb90
  3c:	38202965 	stmdacc	r0!, {r0, r2, r5, r6, r8, fp, sp}
  40:	312e332e 			; <UNDEFINED> instruction: 0x312e332e
  44:	31303220 	teqcc	r0, r0, lsr #4
  48:	30373039 	eorscc	r3, r7, r9, lsr r0
  4c:	72282033 	eorvc	r2, r8, #51	; 0x33
  50:	61656c65 	cmnvs	r5, r5, ror #24
  54:	20296573 	eorcs	r6, r9, r3, ror r5
  58:	6363675b 	cmnvs	r3, #23855104	; 0x16c0000
  5c:	622d382d 	eorvs	r3, sp, #2949120	; 0x2d0000
  60:	636e6172 	cmnvs	lr, #-2147483620	; 0x8000001c
  64:	65722068 	ldrbvs	r2, [r2, #-104]!	; 0xffffff98
  68:	69736976 	ldmdbvs	r3!, {r1, r2, r4, r5, r6, r8, fp, sp, lr}^
  6c:	32206e6f 	eorcc	r6, r0, #1776	; 0x6f0
  70:	32303337 	eorscc	r3, r0, #-603979776	; 0xdc000000
  74:	Address 0x0000000000000074 is out of bounds.


Disassembly of section .ARM.attributes:

00000000 <.ARM.attributes>:
   0:	00003441 	andeq	r3, r0, r1, asr #8
   4:	61656100 	cmnvs	r5, r0, lsl #2
   8:	01006962 	tsteq	r0, r2, ror #18
   c:	0000002a 	andeq	r0, r0, sl, lsr #32
  10:	412d3705 			; <UNDEFINED> instruction: 0x412d3705
  14:	070a0600 	streq	r0, [sl, -r0, lsl #12]
  18:	09010841 	stmdbeq	r1, {r0, r6, fp}
  1c:	0c050a02 			; <UNDEFINED> instruction: 0x0c050a02
  20:	14041202 	strne	r1, [r4], #-514	; 0xfffffdfe
  24:	17011501 	strne	r1, [r1, -r1, lsl #10]
  28:	19011803 	stmdbne	r1, {r0, r1, fp, ip}
  2c:	1c011a01 			; <UNDEFINED> instruction: 0x1c011a01
  30:	22021e01 	andcs	r1, r2, #1, 28
  34:	Address 0x0000000000000034 is out of bounds.

