In archive lib/libff12c.a:

ff.o:     file format elf32-littlearm


Disassembly of section .text:

00000000 <pattern_matching>:
       0:	e92d47f0 	push	{r4, r5, r6, r7, r8, r9, sl, lr}
       4:	e1a04001 	mov	r4, r1
       8:	e1a07000 	mov	r7, r0
       c:	e59fe13c 	ldr	lr, [pc, #316]	; 150 <pattern_matching+0x150>
      10:	e0812002 	add	r2, r1, r2
      14:	e1520004 	cmp	r2, r4
      18:	0a00000b 	beq	4c <pattern_matching+0x4c>
      1c:	e4d41001 	ldrb	r1, [r4], #1
      20:	e6ff0071 	uxth	r0, r1
      24:	e240c061 	sub	ip, r0, #97	; 0x61
      28:	e35c0019 	cmp	ip, #25
      2c:	9afffff8 	bls	14 <pattern_matching+0x14>
      30:	e350007f 	cmp	r0, #127	; 0x7f
      34:	808e1001 	addhi	r1, lr, r1
      38:	85510080 	ldrbhi	r0, [r1, #-128]	; 0xffffff80
      3c:	e3500000 	cmp	r0, #0
      40:	08bd87f0 	popeq	{r4, r5, r6, r7, r8, r9, sl, pc}
      44:	e1520004 	cmp	r2, r4
      48:	1afffff3 	bne	1c <pattern_matching+0x1c>
      4c:	e5d78000 	ldrb	r8, [r7]
      50:	e2936000 	adds	r6, r3, #0
      54:	13a06001 	movne	r6, #1
      58:	e3580000 	cmp	r8, #0
      5c:	01a03006 	moveq	r3, r6
      60:	13a03000 	movne	r3, #0
      64:	e3530000 	cmp	r3, #0
      68:	1a000036 	bne	148 <pattern_matching+0x148>
      6c:	e59f50dc 	ldr	r5, [pc, #220]	; 150 <pattern_matching+0x150>
      70:	e1a0c007 	mov	ip, r7
      74:	e1a01008 	mov	r1, r8
      78:	e1a09004 	mov	r9, r4
      7c:	ea000017 	b	e0 <pattern_matching+0xe0>
      80:	e6ff3071 	uxth	r3, r1
      84:	e2432061 	sub	r2, r3, #97	; 0x61
      88:	e3520019 	cmp	r2, #25
      8c:	92433020 	subls	r3, r3, #32
      90:	96ff3073 	uxthls	r3, r3
      94:	9a000002 	bls	a4 <pattern_matching+0xa4>
      98:	e353007f 	cmp	r3, #127	; 0x7f
      9c:	80851001 	addhi	r1, r5, r1
      a0:	85513080 	ldrbhi	r3, [r1, #-128]	; 0xffffff80
      a4:	e4d92001 	ldrb	r2, [r9], #1
      a8:	e6ff0072 	uxth	r0, r2
      ac:	e2401061 	sub	r1, r0, #97	; 0x61
      b0:	e3510019 	cmp	r1, #25
      b4:	92400020 	subls	r0, r0, #32
      b8:	96ff0070 	uxthls	r0, r0
      bc:	9a000002 	bls	cc <pattern_matching+0xcc>
      c0:	e350007f 	cmp	r0, #127	; 0x7f
      c4:	80852002 	addhi	r2, r5, r2
      c8:	85520080 	ldrbhi	r0, [r2, #-128]	; 0xffffff80
      cc:	e1500003 	cmp	r0, r3
      d0:	1a000015 	bne	12c <pattern_matching+0x12c>
      d4:	e3500000 	cmp	r0, #0
      d8:	0a00001a 	beq	148 <pattern_matching+0x148>
      dc:	e5fc1001 	ldrb	r1, [ip, #1]!
      e0:	e351002a 	cmp	r1, #42	; 0x2a
      e4:	1351003f 	cmpne	r1, #63	; 0x3f
      e8:	1affffe4 	bne	80 <pattern_matching+0x80>
      ec:	e3a03000 	mov	r3, #0
      f0:	e1a02003 	mov	r2, r3
      f4:	e28cc001 	add	ip, ip, #1
      f8:	e351003f 	cmp	r1, #63	; 0x3f
      fc:	e1a0000c 	mov	r0, ip
     100:	e4dc1001 	ldrb	r1, [ip], #1
     104:	02822001 	addeq	r2, r2, #1
     108:	13a03001 	movne	r3, #1
     10c:	e351002a 	cmp	r1, #42	; 0x2a
     110:	1351003f 	cmpne	r1, #63	; 0x3f
     114:	0afffff7 	beq	f8 <pattern_matching+0xf8>
     118:	e1a01009 	mov	r1, r9
     11c:	ebffffb7 	bl	0 <pattern_matching>
     120:	e3500000 	cmp	r0, #0
     124:	1a000007 	bne	148 <pattern_matching+0x148>
     128:	e5d90000 	ldrb	r0, [r9]
     12c:	e3500000 	cmp	r0, #0
     130:	11a00006 	movne	r0, r6
     134:	03a00000 	moveq	r0, #0
     138:	e3500000 	cmp	r0, #0
     13c:	e2844001 	add	r4, r4, #1
     140:	1affffca 	bne	70 <pattern_matching+0x70>
     144:	e8bd87f0 	pop	{r4, r5, r6, r7, r8, r9, sl, pc}
     148:	e3a00001 	mov	r0, #1
     14c:	e8bd87f0 	pop	{r4, r5, r6, r7, r8, r9, sl, pc}
     150:	00000000 	andeq	r0, r0, r0

00000154 <get_ldnumber>:
     154:	e590c000 	ldr	ip, [r0]
     158:	e35c0000 	cmp	ip, #0
     15c:	0a000015 	beq	1b8 <get_ldnumber+0x64>
     160:	e5dc1000 	ldrb	r1, [ip]
     164:	e1a0200c 	mov	r2, ip
     168:	e351003a 	cmp	r1, #58	; 0x3a
     16c:	1351001f 	cmpne	r1, #31
     170:	9a000013 	bls	1c4 <get_ldnumber+0x70>
     174:	e5f23001 	ldrb	r3, [r2, #1]!
     178:	e353003a 	cmp	r3, #58	; 0x3a
     17c:	1353001f 	cmpne	r3, #31
     180:	8afffffb 	bhi	174 <get_ldnumber+0x20>
     184:	e353003a 	cmp	r3, #58	; 0x3a
     188:	0a000003 	beq	19c <get_ldnumber+0x48>
     18c:	e59f3038 	ldr	r3, [pc, #56]	; 1cc <get_ldnumber+0x78>
     190:	e5d31000 	ldrb	r1, [r3]
     194:	e1a00001 	mov	r0, r1
     198:	e12fff1e 	bx	lr
     19c:	e2411030 	sub	r1, r1, #48	; 0x30
     1a0:	e28cc001 	add	ip, ip, #1
     1a4:	e3510003 	cmp	r1, #3
     1a8:	9152000c 	cmpls	r2, ip
     1ac:	02822001 	addeq	r2, r2, #1
     1b0:	05802000 	streq	r2, [r0]
     1b4:	0afffff6 	beq	194 <get_ldnumber+0x40>
     1b8:	e3e01000 	mvn	r1, #0
     1bc:	e1a00001 	mov	r0, r1
     1c0:	e12fff1e 	bx	lr
     1c4:	e1a03001 	mov	r3, r1
     1c8:	eaffffed 	b	184 <get_ldnumber+0x30>
     1cc:	00000000 	andeq	r0, r0, r0

000001d0 <validate>:
     1d0:	e92d4010 	push	{r4, lr}
     1d4:	e2504000 	subs	r4, r0, #0
     1d8:	e24dd008 	sub	sp, sp, #8
     1dc:	0a000009 	beq	208 <validate+0x38>
     1e0:	e5943000 	ldr	r3, [r4]
     1e4:	e3530000 	cmp	r3, #0
     1e8:	0a000006 	beq	208 <validate+0x38>
     1ec:	e5d32000 	ldrb	r2, [r3]
     1f0:	e3520000 	cmp	r2, #0
     1f4:	0a000003 	beq	208 <validate+0x38>
     1f8:	e1d300b6 	ldrh	r0, [r3, #6]
     1fc:	e1d420b4 	ldrh	r2, [r4, #4]
     200:	e1500002 	cmp	r0, r2
     204:	0a000004 	beq	21c <validate+0x4c>
     208:	e3a03000 	mov	r3, #0
     20c:	e3a00009 	mov	r0, #9
     210:	e5813000 	str	r3, [r1]
     214:	e28dd008 	add	sp, sp, #8
     218:	e8bd8010 	pop	{r4, pc}
     21c:	e5d30001 	ldrb	r0, [r3, #1]
     220:	e58d1004 	str	r1, [sp, #4]
     224:	ebfffffe 	bl	0 <disk_status>
     228:	e2100001 	ands	r0, r0, #1
     22c:	e59d1004 	ldr	r1, [sp, #4]
     230:	1afffff4 	bne	208 <validate+0x38>
     234:	e5943000 	ldr	r3, [r4]
     238:	eafffff4 	b	210 <validate+0x40>

0000023c <mem_cpy.part.0>:
     23c:	e2400001 	sub	r0, r0, #1
     240:	e0812002 	add	r2, r1, r2
     244:	e4d13001 	ldrb	r3, [r1], #1
     248:	e1510002 	cmp	r1, r2
     24c:	e5e03001 	strb	r3, [r0, #1]!
     250:	1afffffb 	bne	244 <mem_cpy.part.0+0x8>
     254:	e12fff1e 	bx	lr

00000258 <sync_window.part.3>:
     258:	e92d41f0 	push	{r4, r5, r6, r7, r8, lr}
     25c:	e5905034 	ldr	r5, [r0, #52]	; 0x34
     260:	e2807038 	add	r7, r0, #56	; 0x38
     264:	e1a04000 	mov	r4, r0
     268:	e1a02005 	mov	r2, r5
     26c:	e1a01007 	mov	r1, r7
     270:	e5d00001 	ldrb	r0, [r0, #1]
     274:	e3a03001 	mov	r3, #1
     278:	ebfffffe 	bl	0 <disk_write>
     27c:	e2508000 	subs	r8, r0, #0
     280:	13a08001 	movne	r8, #1
     284:	1a000013 	bne	2d8 <sync_window.part.3+0x80>
     288:	e5942028 	ldr	r2, [r4, #40]	; 0x28
     28c:	e5943020 	ldr	r3, [r4, #32]
     290:	e0452002 	sub	r2, r5, r2
     294:	e1520003 	cmp	r2, r3
     298:	e5c48003 	strb	r8, [r4, #3]
     29c:	2a00000d 	bcs	2d8 <sync_window.part.3+0x80>
     2a0:	e5d46002 	ldrb	r6, [r4, #2]
     2a4:	e3560001 	cmp	r6, #1
     2a8:	8a000001 	bhi	2b4 <sync_window.part.3+0x5c>
     2ac:	ea000009 	b	2d8 <sync_window.part.3+0x80>
     2b0:	e5943020 	ldr	r3, [r4, #32]
     2b4:	e0855003 	add	r5, r5, r3
     2b8:	e2466001 	sub	r6, r6, #1
     2bc:	e1a02005 	mov	r2, r5
     2c0:	e3a03001 	mov	r3, #1
     2c4:	e1a01007 	mov	r1, r7
     2c8:	e5d40001 	ldrb	r0, [r4, #1]
     2cc:	ebfffffe 	bl	0 <disk_write>
     2d0:	e3560001 	cmp	r6, #1
     2d4:	1afffff5 	bne	2b0 <sync_window.part.3+0x58>
     2d8:	e1a00008 	mov	r0, r8
     2dc:	e8bd81f0 	pop	{r4, r5, r6, r7, r8, pc}

000002e0 <sync_fs>:
     2e0:	e92d47f0 	push	{r4, r5, r6, r7, r8, r9, sl, lr}
     2e4:	e5d03003 	ldrb	r3, [r0, #3]
     2e8:	e1a04000 	mov	r4, r0
     2ec:	e3530000 	cmp	r3, #0
     2f0:	1a000009 	bne	31c <sync_fs+0x3c>
     2f4:	e5d43000 	ldrb	r3, [r4]
     2f8:	e3530003 	cmp	r3, #3
     2fc:	0a00000c 	beq	334 <sync_fs+0x54>
     300:	e3a02000 	mov	r2, #0
     304:	e5d40001 	ldrb	r0, [r4, #1]
     308:	e1a01002 	mov	r1, r2
     30c:	ebfffffe 	bl	0 <disk_ioctl>
     310:	e2900000 	adds	r0, r0, #0
     314:	13a00001 	movne	r0, #1
     318:	e8bd87f0 	pop	{r4, r5, r6, r7, r8, r9, sl, pc}
     31c:	ebffffcd 	bl	258 <sync_window.part.3>
     320:	e3500000 	cmp	r0, #0
     324:	18bd87f0 	popne	{r4, r5, r6, r7, r8, r9, sl, pc}
     328:	e5d43000 	ldrb	r3, [r4]
     32c:	e3530003 	cmp	r3, #3
     330:	1afffff2 	bne	300 <sync_fs+0x20>
     334:	e5d43004 	ldrb	r3, [r4, #4]
     338:	e3530001 	cmp	r3, #1
     33c:	1affffef 	bne	300 <sync_fs+0x20>
     340:	e2841038 	add	r1, r4, #56	; 0x38
     344:	e1a03001 	mov	r3, r1
     348:	e3a05000 	mov	r5, #0
     34c:	e2842f8e 	add	r2, r4, #568	; 0x238
     350:	e4c35001 	strb	r5, [r3], #1
     354:	e1520003 	cmp	r2, r3
     358:	1afffffc 	bne	350 <sync_fs+0x70>
     35c:	e3a0e061 	mov	lr, #97	; 0x61
     360:	e3a0c041 	mov	ip, #65	; 0x41
     364:	e3a00072 	mov	r0, #114	; 0x72
     368:	e3a06052 	mov	r6, #82	; 0x52
     36c:	e3a08055 	mov	r8, #85	; 0x55
     370:	e3e07055 	mvn	r7, #85	; 0x55
     374:	e5943014 	ldr	r3, [r4, #20]
     378:	e5c4021c 	strb	r0, [r4, #540]	; 0x21c
     37c:	e1a02423 	lsr	r2, r3, #8
     380:	e5c43220 	strb	r3, [r4, #544]	; 0x220
     384:	e5c42221 	strb	r2, [r4, #545]	; 0x221
     388:	e1a09823 	lsr	r9, r3, #16
     38c:	e1a02c23 	lsr	r2, r3, #24
     390:	e5943010 	ldr	r3, [r4, #16]
     394:	e5c42223 	strb	r2, [r4, #547]	; 0x223
     398:	e1a02423 	lsr	r2, r3, #8
     39c:	e5c42225 	strb	r2, [r4, #549]	; 0x225
     3a0:	e1a02823 	lsr	r2, r3, #16
     3a4:	e5c42226 	strb	r2, [r4, #550]	; 0x226
     3a8:	e5942024 	ldr	r2, [r4, #36]	; 0x24
     3ac:	e5c43224 	strb	r3, [r4, #548]	; 0x224
     3b0:	e2822001 	add	r2, r2, #1
     3b4:	e1a03c23 	lsr	r3, r3, #24
     3b8:	e5c43227 	strb	r3, [r4, #551]	; 0x227
     3bc:	e5c4021d 	strb	r0, [r4, #541]	; 0x21d
     3c0:	e5c49222 	strb	r9, [r4, #546]	; 0x222
     3c4:	e5c48236 	strb	r8, [r4, #566]	; 0x236
     3c8:	e5842034 	str	r2, [r4, #52]	; 0x34
     3cc:	e5c47237 	strb	r7, [r4, #567]	; 0x237
     3d0:	e5c46038 	strb	r6, [r4, #56]	; 0x38
     3d4:	e5c46039 	strb	r6, [r4, #57]	; 0x39
     3d8:	e5c4e03a 	strb	lr, [r4, #58]	; 0x3a
     3dc:	e5c4e21f 	strb	lr, [r4, #543]	; 0x21f
     3e0:	e5c4c03b 	strb	ip, [r4, #59]	; 0x3b
     3e4:	e5c4c21e 	strb	ip, [r4, #542]	; 0x21e
     3e8:	e3a03001 	mov	r3, #1
     3ec:	e5d40001 	ldrb	r0, [r4, #1]
     3f0:	ebfffffe 	bl	0 <disk_write>
     3f4:	e5c45004 	strb	r5, [r4, #4]
     3f8:	eaffffc0 	b	300 <sync_fs+0x20>

000003fc <move_window.part.4>:
     3fc:	e92d4070 	push	{r4, r5, r6, lr}
     400:	e5d03003 	ldrb	r3, [r0, #3]
     404:	e1a04000 	mov	r4, r0
     408:	e3530000 	cmp	r3, #0
     40c:	e1a05001 	mov	r5, r1
     410:	1a00000a 	bne	440 <move_window.part.4+0x44>
     414:	e1a02005 	mov	r2, r5
     418:	e3a03001 	mov	r3, #1
     41c:	e2841038 	add	r1, r4, #56	; 0x38
     420:	e5d40001 	ldrb	r0, [r4, #1]
     424:	ebfffffe 	bl	0 <disk_read>
     428:	e2503000 	subs	r3, r0, #0
     42c:	13a03001 	movne	r3, #1
     430:	13e05000 	mvnne	r5, #0
     434:	e1a00003 	mov	r0, r3
     438:	e5845034 	str	r5, [r4, #52]	; 0x34
     43c:	e8bd8070 	pop	{r4, r5, r6, pc}
     440:	ebffff84 	bl	258 <sync_window.part.3>
     444:	e2503000 	subs	r3, r0, #0
     448:	0afffff1 	beq	414 <move_window.part.4+0x18>
     44c:	e1a00003 	mov	r0, r3
     450:	e8bd8070 	pop	{r4, r5, r6, pc}

00000454 <check_fs>:
     454:	e3e03000 	mvn	r3, #0
     458:	e3a02000 	mov	r2, #0
     45c:	e1510003 	cmp	r1, r3
     460:	e92d4010 	push	{r4, lr}
     464:	e1a04000 	mov	r4, r0
     468:	e5c02003 	strb	r2, [r0, #3]
     46c:	e5803034 	str	r3, [r0, #52]	; 0x34
     470:	0a000002 	beq	480 <check_fs+0x2c>
     474:	ebffffe0 	bl	3fc <move_window.part.4>
     478:	e3500000 	cmp	r0, #0
     47c:	1a000025 	bne	518 <check_fs+0xc4>
     480:	e5d41237 	ldrb	r1, [r4, #567]	; 0x237
     484:	e5d43236 	ldrb	r3, [r4, #566]	; 0x236
     488:	e59f2098 	ldr	r2, [pc, #152]	; 528 <check_fs+0xd4>
     48c:	e1833401 	orr	r3, r3, r1, lsl #8
     490:	e1530002 	cmp	r3, r2
     494:	1a00001d 	bne	510 <check_fs+0xbc>
     498:	e5d43038 	ldrb	r3, [r4, #56]	; 0x38
     49c:	e35300e9 	cmp	r3, #233	; 0xe9
     4a0:	0a000007 	beq	4c4 <check_fs+0x70>
     4a4:	e5943038 	ldr	r3, [r4, #56]	; 0x38
     4a8:	e59f207c 	ldr	r2, [pc, #124]	; 52c <check_fs+0xd8>
     4ac:	e3c334ff 	bic	r3, r3, #-16777216	; 0xff000000
     4b0:	e3c33cff 	bic	r3, r3, #65280	; 0xff00
     4b4:	e1530002 	cmp	r3, r2
     4b8:	0a000001 	beq	4c4 <check_fs+0x70>
     4bc:	e3a00002 	mov	r0, #2
     4c0:	e8bd8010 	pop	{r4, pc}
     4c4:	e1d417b0 	ldrh	r1, [r4, #112]	; 0x70
     4c8:	e5d4206f 	ldrb	r2, [r4, #111]	; 0x6f
     4cc:	e5d4306e 	ldrb	r3, [r4, #110]	; 0x6e
     4d0:	e1822401 	orr	r2, r2, r1, lsl #8
     4d4:	e1833402 	orr	r3, r3, r2, lsl #8
     4d8:	e59f2050 	ldr	r2, [pc, #80]	; 530 <check_fs+0xdc>
     4dc:	e3c334ff 	bic	r3, r3, #-16777216	; 0xff000000
     4e0:	e1530002 	cmp	r3, r2
     4e4:	0a00000d 	beq	520 <check_fs+0xcc>
     4e8:	e1d428bc 	ldrh	r2, [r4, #140]	; 0x8c
     4ec:	e5d4308b 	ldrb	r3, [r4, #139]	; 0x8b
     4f0:	e5d4008a 	ldrb	r0, [r4, #138]	; 0x8a
     4f4:	e1833402 	orr	r3, r3, r2, lsl #8
     4f8:	e59f2034 	ldr	r2, [pc, #52]	; 534 <check_fs+0xe0>
     4fc:	e1800403 	orr	r0, r0, r3, lsl #8
     500:	e1500002 	cmp	r0, r2
     504:	13a00002 	movne	r0, #2
     508:	03a00000 	moveq	r0, #0
     50c:	e8bd8010 	pop	{r4, pc}
     510:	e3a00003 	mov	r0, #3
     514:	e8bd8010 	pop	{r4, pc}
     518:	e3a00004 	mov	r0, #4
     51c:	e8bd8010 	pop	{r4, pc}
     520:	e3a00000 	mov	r0, #0
     524:	e8bd8010 	pop	{r4, pc}
     528:	0000aa55 	andeq	sl, r0, r5, asr sl
     52c:	009000eb 	addseq	r0, r0, fp, ror #1
     530:	00544146 	subseq	r4, r4, r6, asr #2
     534:	33544146 	cmpcc	r4, #-2147483631	; 0x80000011

00000538 <find_volume>:
     538:	e3a03000 	mov	r3, #0
     53c:	e92d4ff0 	push	{r4, r5, r6, r7, r8, r9, sl, fp, lr}
     540:	e5813000 	str	r3, [r1]
     544:	e24dd024 	sub	sp, sp, #36	; 0x24
     548:	e1a04002 	mov	r4, r2
     54c:	e1a08001 	mov	r8, r1
     550:	ebfffeff 	bl	154 <get_ldnumber>
     554:	e2507000 	subs	r7, r0, #0
     558:	b3a0400b 	movlt	r4, #11
     55c:	ba000011 	blt	5a8 <find_volume+0x70>
     560:	e59f64d4 	ldr	r6, [pc, #1236]	; a3c <find_volume+0x504>
     564:	e0863107 	add	r3, r6, r7, lsl #2
     568:	e5935004 	ldr	r5, [r3, #4]
     56c:	e3550000 	cmp	r5, #0
     570:	0a000085 	beq	78c <find_volume+0x254>
     574:	e5885000 	str	r5, [r8]
     578:	e5d53000 	ldrb	r3, [r5]
     57c:	e20440fe 	and	r4, r4, #254	; 0xfe
     580:	e3530000 	cmp	r3, #0
     584:	0a00000a 	beq	5b4 <find_volume+0x7c>
     588:	e5d50001 	ldrb	r0, [r5, #1]
     58c:	ebfffffe 	bl	0 <disk_status>
     590:	e3100001 	tst	r0, #1
     594:	1a000006 	bne	5b4 <find_volume+0x7c>
     598:	e3540000 	cmp	r4, #0
     59c:	0a000001 	beq	5a8 <find_volume+0x70>
     5a0:	e2104004 	ands	r4, r0, #4
     5a4:	1a000070 	bne	76c <find_volume+0x234>
     5a8:	e1a00004 	mov	r0, r4
     5ac:	e28dd024 	add	sp, sp, #36	; 0x24
     5b0:	e8bd8ff0 	pop	{r4, r5, r6, r7, r8, r9, sl, fp, pc}
     5b4:	e3a03000 	mov	r3, #0
     5b8:	e59f9480 	ldr	r9, [pc, #1152]	; a40 <find_volume+0x508>
     5bc:	e5c53000 	strb	r3, [r5]
     5c0:	e7d90087 	ldrb	r0, [r9, r7, lsl #1]
     5c4:	e5c50001 	strb	r0, [r5, #1]
     5c8:	ebfffffe 	bl	0 <disk_initialize>
     5cc:	e3100001 	tst	r0, #1
     5d0:	13a04003 	movne	r4, #3
     5d4:	1afffff3 	bne	5a8 <find_volume+0x70>
     5d8:	e3540000 	cmp	r4, #0
     5dc:	0a000001 	beq	5e8 <find_volume+0xb0>
     5e0:	e3100004 	tst	r0, #4
     5e4:	1a000060 	bne	76c <find_volume+0x234>
     5e8:	e3a01000 	mov	r1, #0
     5ec:	e1a00005 	mov	r0, r5
     5f0:	ebffff97 	bl	454 <check_fs>
     5f4:	e3500002 	cmp	r0, #2
     5f8:	0a00005f 	beq	77c <find_volume+0x244>
     5fc:	e3500001 	cmp	r0, #1
     600:	9a000005 	bls	61c <find_volume+0xe4>
     604:	e3500004 	cmp	r0, #4
     608:	1a000053 	bne	75c <find_volume+0x224>
     60c:	e3a04001 	mov	r4, #1
     610:	e1a00004 	mov	r0, r4
     614:	e28dd024 	add	sp, sp, #36	; 0x24
     618:	e8bd8ff0 	pop	{r4, r5, r6, r7, r8, r9, sl, fp, pc}
     61c:	e1a0c087 	lsl	ip, r7, #1
     620:	e089300c 	add	r3, r9, ip
     624:	e5d34001 	ldrb	r4, [r3, #1]
     628:	e3540000 	cmp	r4, #0
     62c:	0a000027 	beq	6d0 <find_volume+0x198>
     630:	e2853f7d 	add	r3, r5, #500	; 0x1f4
     634:	e285ef8d 	add	lr, r5, #564	; 0x234
     638:	e28d1010 	add	r1, sp, #16
     63c:	e2833002 	add	r3, r3, #2
     640:	e28ee002 	add	lr, lr, #2
     644:	e5d32004 	ldrb	r2, [r3, #4]
     648:	e2833010 	add	r3, r3, #16
     64c:	e3520000 	cmp	r2, #0
     650:	15530007 	ldrbne	r0, [r3, #-7]
     654:	115370b6 	ldrhne	r7, [r3, #-6]
     658:	15532008 	ldrbne	r2, [r3, #-8]
     65c:	11800407 	orrne	r0, r0, r7, lsl #8
     660:	11822400 	orrne	r2, r2, r0, lsl #8
     664:	e153000e 	cmp	r3, lr
     668:	e4812004 	str	r2, [r1], #4
     66c:	1afffff4 	bne	644 <find_volume+0x10c>
     670:	e2547000 	subs	r7, r4, #0
     674:	12477001 	subne	r7, r7, #1
     678:	e28d3010 	add	r3, sp, #16
     67c:	e0838107 	add	r8, r3, r7, lsl #2
     680:	e089900c 	add	r9, r9, ip
     684:	ea000005 	b	6a0 <find_volume+0x168>
     688:	e5d93001 	ldrb	r3, [r9, #1]
     68c:	e3530000 	cmp	r3, #0
     690:	1a000031 	bne	75c <find_volume+0x224>
     694:	e3a00003 	mov	r0, #3
     698:	e3570003 	cmp	r7, #3
     69c:	8affffd8 	bhi	604 <find_volume+0xcc>
     6a0:	e4984004 	ldr	r4, [r8], #4
     6a4:	e2877001 	add	r7, r7, #1
     6a8:	e3540000 	cmp	r4, #0
     6ac:	0afffff5 	beq	688 <find_volume+0x150>
     6b0:	e1a01004 	mov	r1, r4
     6b4:	e1a00005 	mov	r0, r5
     6b8:	ebffff65 	bl	454 <check_fs>
     6bc:	e5d93001 	ldrb	r3, [r9, #1]
     6c0:	e3530000 	cmp	r3, #0
     6c4:	1a00009a 	bne	934 <find_volume+0x3fc>
     6c8:	e3500001 	cmp	r0, #1
     6cc:	8afffff1 	bhi	698 <find_volume+0x160>
     6d0:	e5d52044 	ldrb	r2, [r5, #68]	; 0x44
     6d4:	e5d53043 	ldrb	r3, [r5, #67]	; 0x43
     6d8:	e1833402 	orr	r3, r3, r2, lsl #8
     6dc:	e3530c02 	cmp	r3, #512	; 0x200
     6e0:	1a00001d 	bne	75c <find_volume+0x224>
     6e4:	e5d5304f 	ldrb	r3, [r5, #79]	; 0x4f
     6e8:	e5d5704e 	ldrb	r7, [r5, #78]	; 0x4e
     6ec:	e1977403 	orrs	r7, r7, r3, lsl #8
     6f0:	05d5305d 	ldrbeq	r3, [r5, #93]	; 0x5d
     6f4:	01d525be 	ldrheq	r2, [r5, #94]	; 0x5e
     6f8:	05d5705c 	ldrbeq	r7, [r5, #92]	; 0x5c
     6fc:	01833402 	orreq	r3, r3, r2, lsl #8
     700:	01877403 	orreq	r7, r7, r3, lsl #8
     704:	e5d53048 	ldrb	r3, [r5, #72]	; 0x48
     708:	e5857020 	str	r7, [r5, #32]
     70c:	e2432001 	sub	r2, r3, #1
     710:	e3520001 	cmp	r2, #1
     714:	e5c53002 	strb	r3, [r5, #2]
     718:	8a00000f 	bhi	75c <find_volume+0x224>
     71c:	e5d5a045 	ldrb	sl, [r5, #69]	; 0x45
     720:	e6ff207a 	uxth	r2, sl
     724:	e3520000 	cmp	r2, #0
     728:	e1c520ba 	strh	r2, [r5, #10]
     72c:	0a00000a 	beq	75c <find_volume+0x224>
     730:	e24a2001 	sub	r2, sl, #1
     734:	e112000a 	tst	r2, sl
     738:	1a000007 	bne	75c <find_volume+0x224>
     73c:	e5d5204a 	ldrb	r2, [r5, #74]	; 0x4a
     740:	e5d59049 	ldrb	r9, [r5, #73]	; 0x49
     744:	e1899402 	orr	r9, r9, r2, lsl #8
     748:	e6bf9079 	sxth	r9, r9
     74c:	e6ff2079 	uxth	r2, r9
     750:	e312000f 	tst	r2, #15
     754:	e1c520b8 	strh	r2, [r5, #8]
     758:	0a00000d 	beq	794 <find_volume+0x25c>
     75c:	e3a0400d 	mov	r4, #13
     760:	e1a00004 	mov	r0, r4
     764:	e28dd024 	add	sp, sp, #36	; 0x24
     768:	e8bd8ff0 	pop	{r4, r5, r6, r7, r8, r9, sl, fp, pc}
     76c:	e3a0400a 	mov	r4, #10
     770:	e1a00004 	mov	r0, r4
     774:	e28dd024 	add	sp, sp, #36	; 0x24
     778:	e8bd8ff0 	pop	{r4, r5, r6, r7, r8, r9, sl, fp, pc}
     77c:	e1a0c087 	lsl	ip, r7, #1
     780:	e089300c 	add	r3, r9, ip
     784:	e5d34001 	ldrb	r4, [r3, #1]
     788:	eaffffa8 	b	630 <find_volume+0xf8>
     78c:	e3a0400c 	mov	r4, #12
     790:	eaffff84 	b	5a8 <find_volume+0x70>
     794:	e5d5804c 	ldrb	r8, [r5, #76]	; 0x4c
     798:	e5d5104b 	ldrb	r1, [r5, #75]	; 0x4b
     79c:	e5d5b046 	ldrb	fp, [r5, #70]	; 0x46
     7a0:	e1911408 	orrs	r1, r1, r8, lsl #8
     7a4:	01d505ba 	ldrheq	r0, [r5, #90]	; 0x5a
     7a8:	05d51059 	ldrbeq	r1, [r5, #89]	; 0x59
     7ac:	05d58058 	ldrbeq	r8, [r5, #88]	; 0x58
     7b0:	01811400 	orreq	r1, r1, r0, lsl #8
     7b4:	e5d50047 	ldrb	r0, [r5, #71]	; 0x47
     7b8:	01881401 	orreq	r1, r8, r1, lsl #8
     7bc:	e19bb400 	orrs	fp, fp, r0, lsl #8
     7c0:	0affffe5 	beq	75c <find_volume+0x224>
     7c4:	e0000397 	mul	r0, r7, r3
     7c8:	e08b3222 	add	r3, fp, r2, lsr #4
     7cc:	e0833000 	add	r3, r3, r0
     7d0:	e1510003 	cmp	r1, r3
     7d4:	e58d0008 	str	r0, [sp, #8]
     7d8:	e58d200c 	str	r2, [sp, #12]
     7dc:	3affffde 	bcc	75c <find_volume+0x224>
     7e0:	e0418003 	sub	r8, r1, r3
     7e4:	e1a00008 	mov	r0, r8
     7e8:	e1a0100a 	mov	r1, sl
     7ec:	e58d3004 	str	r3, [sp, #4]
     7f0:	ebfffffe 	bl	0 <__aeabi_uidiv>
     7f4:	e158000a 	cmp	r8, sl
     7f8:	3affffd7 	bcc	75c <find_volume+0x224>
     7fc:	e59f1240 	ldr	r1, [pc, #576]	; a44 <find_volume+0x50c>
     800:	e59d3004 	ldr	r3, [sp, #4]
     804:	e1500001 	cmp	r0, r1
     808:	e0833004 	add	r3, r3, r4
     80c:	e08bb004 	add	fp, fp, r4
     810:	e2801002 	add	r1, r0, #2
     814:	8a000024 	bhi	8ac <find_volume+0x374>
     818:	e59fc228 	ldr	ip, [pc, #552]	; a48 <find_volume+0x510>
     81c:	e59d200c 	ldr	r2, [sp, #12]
     820:	e150000c 	cmp	r0, ip
     824:	8a000047 	bhi	948 <find_volume+0x410>
     828:	e3520000 	cmp	r2, #0
     82c:	e585101c 	str	r1, [r5, #28]
     830:	e5854024 	str	r4, [r5, #36]	; 0x24
     834:	e585b028 	str	fp, [r5, #40]	; 0x28
     838:	e5853030 	str	r3, [r5, #48]	; 0x30
     83c:	0affffc6 	beq	75c <find_volume+0x224>
     840:	e59d3008 	ldr	r3, [sp, #8]
     844:	e0810081 	add	r0, r1, r1, lsl #1
     848:	e083200b 	add	r2, r3, fp
     84c:	e585202c 	str	r2, [r5, #44]	; 0x2c
     850:	e3a02001 	mov	r2, #1
     854:	e2013001 	and	r3, r1, #1
     858:	e08330a0 	add	r3, r3, r0, lsr #1
     85c:	e2833f7f 	add	r3, r3, #508	; 0x1fc
     860:	e2833003 	add	r3, r3, #3
     864:	e15704a3 	cmp	r7, r3, lsr #9
     868:	3affffbb 	bcc	75c <find_volume+0x224>
     86c:	e3e03000 	mvn	r3, #0
     870:	e3e0107f 	mvn	r1, #127	; 0x7f
     874:	e5853014 	str	r3, [r5, #20]
     878:	e5853010 	str	r3, [r5, #16]
     87c:	e5c51004 	strb	r1, [r5, #4]
     880:	e3a04000 	mov	r4, #0
     884:	e1d631b4 	ldrh	r3, [r6, #20]
     888:	e59f11bc 	ldr	r1, [pc, #444]	; a4c <find_volume+0x514>
     88c:	e2833001 	add	r3, r3, #1
     890:	e6ff3073 	uxth	r3, r3
     894:	e5c52000 	strb	r2, [r5]
     898:	e1c631b4 	strh	r3, [r6, #20]
     89c:	e1c530b6 	strh	r3, [r5, #6]
     8a0:	e5854018 	str	r4, [r5, #24]
     8a4:	e585100c 	str	r1, [r5, #12]
     8a8:	eaffff3e 	b	5a8 <find_volume+0x70>
     8ac:	e5d50063 	ldrb	r0, [r5, #99]	; 0x63
     8b0:	e5d52062 	ldrb	r2, [r5, #98]	; 0x62
     8b4:	e585101c 	str	r1, [r5, #28]
     8b8:	e1822400 	orr	r2, r2, r0, lsl #8
     8bc:	e1892002 	orr	r2, r9, r2
     8c0:	e6bf2072 	sxth	r2, r2
     8c4:	e3520000 	cmp	r2, #0
     8c8:	e5854024 	str	r4, [r5, #36]	; 0x24
     8cc:	e585b028 	str	fp, [r5, #40]	; 0x28
     8d0:	e5853030 	str	r3, [r5, #48]	; 0x30
     8d4:	1affffa0 	bne	75c <find_volume+0x224>
     8d8:	e1a03101 	lsl	r3, r1, #2
     8dc:	e2833f7f 	add	r3, r3, #508	; 0x1fc
     8e0:	e2833003 	add	r3, r3, #3
     8e4:	e1d516b6 	ldrh	r1, [r5, #102]	; 0x66
     8e8:	e5d52065 	ldrb	r2, [r5, #101]	; 0x65
     8ec:	e15704a3 	cmp	r7, r3, lsr #9
     8f0:	e5d53064 	ldrb	r3, [r5, #100]	; 0x64
     8f4:	e1822401 	orr	r2, r2, r1, lsl #8
     8f8:	e1833402 	orr	r3, r3, r2, lsl #8
     8fc:	e585302c 	str	r3, [r5, #44]	; 0x2c
     900:	3affff95 	bcc	75c <find_volume+0x224>
     904:	e3e02000 	mvn	r2, #0
     908:	e3e0107f 	mvn	r1, #127	; 0x7f
     90c:	e5d50069 	ldrb	r0, [r5, #105]	; 0x69
     910:	e5d53068 	ldrb	r3, [r5, #104]	; 0x68
     914:	e5852014 	str	r2, [r5, #20]
     918:	e1833400 	orr	r3, r3, r0, lsl #8
     91c:	e3530001 	cmp	r3, #1
     920:	e5852010 	str	r2, [r5, #16]
     924:	e5c51004 	strb	r1, [r5, #4]
     928:	0a000012 	beq	978 <find_volume+0x440>
     92c:	e3a02003 	mov	r2, #3
     930:	eaffffd2 	b	880 <find_volume+0x348>
     934:	e3500004 	cmp	r0, #4
     938:	0affff33 	beq	60c <find_volume+0xd4>
     93c:	e3500001 	cmp	r0, #1
     940:	9affff62 	bls	6d0 <find_volume+0x198>
     944:	eaffff84 	b	75c <find_volume+0x224>
     948:	e3520000 	cmp	r2, #0
     94c:	e585101c 	str	r1, [r5, #28]
     950:	e5854024 	str	r4, [r5, #36]	; 0x24
     954:	e585b028 	str	fp, [r5, #40]	; 0x28
     958:	e5853030 	str	r3, [r5, #48]	; 0x30
     95c:	0affff7e 	beq	75c <find_volume+0x224>
     960:	e59d3008 	ldr	r3, [sp, #8]
     964:	e3a02002 	mov	r2, #2
     968:	e083b00b 	add	fp, r3, fp
     96c:	e585b02c 	str	fp, [r5, #44]	; 0x2c
     970:	e1a03081 	lsl	r3, r1, #1
     974:	eaffffb8 	b	85c <find_volume+0x324>
     978:	e5953034 	ldr	r3, [r5, #52]	; 0x34
     97c:	e2841001 	add	r1, r4, #1
     980:	e1510003 	cmp	r1, r3
     984:	0a000003 	beq	998 <find_volume+0x460>
     988:	e1a00005 	mov	r0, r5
     98c:	ebfffe9a 	bl	3fc <move_window.part.4>
     990:	e3500000 	cmp	r0, #0
     994:	1affffe4 	bne	92c <find_volume+0x3f4>
     998:	e3a02000 	mov	r2, #0
     99c:	e5d50237 	ldrb	r0, [r5, #567]	; 0x237
     9a0:	e5d53236 	ldrb	r3, [r5, #566]	; 0x236
     9a4:	e59f10a4 	ldr	r1, [pc, #164]	; a50 <find_volume+0x518>
     9a8:	e1833400 	orr	r3, r3, r0, lsl #8
     9ac:	e1530001 	cmp	r3, r1
     9b0:	e5c52004 	strb	r2, [r5, #4]
     9b4:	1affffdc 	bne	92c <find_volume+0x3f4>
     9b8:	e1d513ba 	ldrh	r1, [r5, #58]	; 0x3a
     9bc:	e5d52039 	ldrb	r2, [r5, #57]	; 0x39
     9c0:	e5d53038 	ldrb	r3, [r5, #56]	; 0x38
     9c4:	e1822401 	orr	r2, r2, r1, lsl #8
     9c8:	e59f1084 	ldr	r1, [pc, #132]	; a54 <find_volume+0x51c>
     9cc:	e1833402 	orr	r3, r3, r2, lsl #8
     9d0:	e1530001 	cmp	r3, r1
     9d4:	1affffd4 	bne	92c <find_volume+0x3f4>
     9d8:	e2853f87 	add	r3, r5, #540	; 0x21c
     9dc:	e1d310b2 	ldrh	r1, [r3, #2]
     9e0:	e5d5221d 	ldrb	r2, [r5, #541]	; 0x21d
     9e4:	e5d5321c 	ldrb	r3, [r5, #540]	; 0x21c
     9e8:	e1822401 	orr	r2, r2, r1, lsl #8
     9ec:	e59f1064 	ldr	r1, [pc, #100]	; a58 <find_volume+0x520>
     9f0:	e1833402 	orr	r3, r3, r2, lsl #8
     9f4:	e1530001 	cmp	r3, r1
     9f8:	1affffcb 	bne	92c <find_volume+0x3f4>
     9fc:	e2853e22 	add	r3, r5, #544	; 0x220
     a00:	e1d300b2 	ldrh	r0, [r3, #2]
     a04:	e5d53221 	ldrb	r3, [r5, #545]	; 0x221
     a08:	e5d51220 	ldrb	r1, [r5, #544]	; 0x220
     a0c:	e1833400 	orr	r3, r3, r0, lsl #8
     a10:	e1811403 	orr	r1, r1, r3, lsl #8
     a14:	e5851014 	str	r1, [r5, #20]
     a18:	e2853f89 	add	r3, r5, #548	; 0x224
     a1c:	e1d300b2 	ldrh	r0, [r3, #2]
     a20:	e5d51225 	ldrb	r1, [r5, #549]	; 0x225
     a24:	e5d53224 	ldrb	r3, [r5, #548]	; 0x224
     a28:	e1811400 	orr	r1, r1, r0, lsl #8
     a2c:	e1833401 	orr	r3, r3, r1, lsl #8
     a30:	e3a02003 	mov	r2, #3
     a34:	e5853010 	str	r3, [r5, #16]
     a38:	eaffff90 	b	880 <find_volume+0x348>
	...
     a44:	0000fff5 	strdeq	pc, [r0], -r5
     a48:	00000ff5 	strdeq	r0, [r0], -r5
     a4c:	00000018 	andeq	r0, r0, r8, lsl r0
     a50:	0000aa55 	andeq	sl, r0, r5, asr sl
     a54:	41615252 	cmnmi	r1, r2, asr r2
     a58:	61417272 	hvcvs	5922	; 0x1722

00000a5c <put_fat.part.6>:
     a5c:	e92d47f0 	push	{r4, r5, r6, r7, r8, r9, sl, lr}
     a60:	e5d03000 	ldrb	r3, [r0]
     a64:	e1a04000 	mov	r4, r0
     a68:	e3530002 	cmp	r3, #2
     a6c:	e1a05001 	mov	r5, r1
     a70:	e1a06002 	mov	r6, r2
     a74:	0a000005 	beq	a90 <put_fat.part.6+0x34>
     a78:	e3530003 	cmp	r3, #3
     a7c:	0a00003f 	beq	b80 <put_fat.part.6+0x124>
     a80:	e3530001 	cmp	r3, #1
     a84:	0a000015 	beq	ae0 <put_fat.part.6+0x84>
     a88:	e3a00002 	mov	r0, #2
     a8c:	e8bd87f0 	pop	{r4, r5, r6, r7, r8, r9, sl, pc}
     a90:	e5901028 	ldr	r1, [r0, #40]	; 0x28
     a94:	e5903034 	ldr	r3, [r0, #52]	; 0x34
     a98:	e0811425 	add	r1, r1, r5, lsr #8
     a9c:	e1510003 	cmp	r1, r3
     aa0:	0a000002 	beq	ab0 <put_fat.part.6+0x54>
     aa4:	ebfffe54 	bl	3fc <move_window.part.4>
     aa8:	e3500000 	cmp	r0, #0
     aac:	18bd87f0 	popne	{r4, r5, r6, r7, r8, r9, sl, pc}
     ab0:	e3a01001 	mov	r1, #1
     ab4:	e59f2180 	ldr	r2, [pc, #384]	; c3c <put_fat.part.6+0x1e0>
     ab8:	e2843038 	add	r3, r4, #56	; 0x38
     abc:	e0025115 	and	r5, r2, r5, lsl r1
     ac0:	e6ff2076 	uxth	r2, r6
     ac4:	e7c36005 	strb	r6, [r3, r5]
     ac8:	e1a02422 	lsr	r2, r2, #8
     acc:	e0833005 	add	r3, r3, r5
     ad0:	e5c32001 	strb	r2, [r3, #1]
     ad4:	e3a00000 	mov	r0, #0
     ad8:	e5c41003 	strb	r1, [r4, #3]
     adc:	e8bd87f0 	pop	{r4, r5, r6, r7, r8, r9, sl, pc}
     ae0:	e5901028 	ldr	r1, [r0, #40]	; 0x28
     ae4:	e08570a5 	add	r7, r5, r5, lsr #1
     ae8:	e5903034 	ldr	r3, [r0, #52]	; 0x34
     aec:	e08114a7 	add	r1, r1, r7, lsr #9
     af0:	e1510003 	cmp	r1, r3
     af4:	0a000002 	beq	b04 <put_fat.part.6+0xa8>
     af8:	ebfffe3f 	bl	3fc <move_window.part.4>
     afc:	e3500000 	cmp	r0, #0
     b00:	18bd87f0 	popne	{r4, r5, r6, r7, r8, r9, sl, pc}
     b04:	e59f8134 	ldr	r8, [pc, #308]	; c40 <put_fat.part.6+0x1e4>
     b08:	e3150001 	tst	r5, #1
     b0c:	e2875001 	add	r5, r7, #1
     b10:	e1a014a5 	lsr	r1, r5, #9
     b14:	e0077008 	and	r7, r7, r8
     b18:	e2849038 	add	r9, r4, #56	; 0x38
     b1c:	0a000033 	beq	bf0 <put_fat.part.6+0x194>
     b20:	e3a02001 	mov	r2, #1
     b24:	e7d93007 	ldrb	r3, [r9, r7]
     b28:	e203300f 	and	r3, r3, #15
     b2c:	e1833206 	orr	r3, r3, r6, lsl #4
     b30:	e7c93007 	strb	r3, [r9, r7]
     b34:	e5940028 	ldr	r0, [r4, #40]	; 0x28
     b38:	e5943034 	ldr	r3, [r4, #52]	; 0x34
     b3c:	e0811000 	add	r1, r1, r0
     b40:	e1510003 	cmp	r1, r3
     b44:	e5c42003 	strb	r2, [r4, #3]
     b48:	0a000003 	beq	b5c <put_fat.part.6+0x100>
     b4c:	e1a00004 	mov	r0, r4
     b50:	ebfffe29 	bl	3fc <move_window.part.4>
     b54:	e3500000 	cmp	r0, #0
     b58:	18bd87f0 	popne	{r4, r5, r6, r7, r8, r9, sl, pc}
     b5c:	e0055008 	and	r5, r5, r8
     b60:	e1a06226 	lsr	r6, r6, #4
     b64:	e0899005 	add	r9, r9, r5
     b68:	e6ef6076 	uxtb	r6, r6
     b6c:	e3a03001 	mov	r3, #1
     b70:	e5c96000 	strb	r6, [r9]
     b74:	e3a00000 	mov	r0, #0
     b78:	e5c43003 	strb	r3, [r4, #3]
     b7c:	e8bd87f0 	pop	{r4, r5, r6, r7, r8, r9, sl, pc}
     b80:	e5901028 	ldr	r1, [r0, #40]	; 0x28
     b84:	e5903034 	ldr	r3, [r0, #52]	; 0x34
     b88:	e08113a5 	add	r1, r1, r5, lsr #7
     b8c:	e1510003 	cmp	r1, r3
     b90:	0a000002 	beq	ba0 <put_fat.part.6+0x144>
     b94:	ebfffe18 	bl	3fc <move_window.part.4>
     b98:	e3500000 	cmp	r0, #0
     b9c:	18bd87f0 	popne	{r4, r5, r6, r7, r8, r9, sl, pc}
     ba0:	e3a0c001 	mov	ip, #1
     ba4:	e1a05105 	lsl	r5, r5, #2
     ba8:	e2840038 	add	r0, r4, #56	; 0x38
     bac:	e2055f7f 	and	r5, r5, #508	; 0x1fc
     bb0:	e0801005 	add	r1, r0, r5
     bb4:	e1d130b2 	ldrh	r3, [r1, #2]
     bb8:	e3c6620f 	bic	r6, r6, #-268435456	; 0xf0000000
     bbc:	e1a03803 	lsl	r3, r3, #16
     bc0:	e203320f 	and	r3, r3, #-268435456	; 0xf0000000
     bc4:	e1836006 	orr	r6, r3, r6
     bc8:	e7c06005 	strb	r6, [r0, r5]
     bcc:	e1a02426 	lsr	r2, r6, #8
     bd0:	e1a03826 	lsr	r3, r6, #16
     bd4:	e1a06c26 	lsr	r6, r6, #24
     bd8:	e5c12001 	strb	r2, [r1, #1]
     bdc:	e5c13002 	strb	r3, [r1, #2]
     be0:	e5c16003 	strb	r6, [r1, #3]
     be4:	e3a00000 	mov	r0, #0
     be8:	e5c4c003 	strb	ip, [r4, #3]
     bec:	e8bd87f0 	pop	{r4, r5, r6, r7, r8, r9, sl, pc}
     bf0:	e3a03001 	mov	r3, #1
     bf4:	e7c96007 	strb	r6, [r9, r7]
     bf8:	e5942028 	ldr	r2, [r4, #40]	; 0x28
     bfc:	e5c43003 	strb	r3, [r4, #3]
     c00:	e5943034 	ldr	r3, [r4, #52]	; 0x34
     c04:	e0811002 	add	r1, r1, r2
     c08:	e1510003 	cmp	r1, r3
     c0c:	0a000003 	beq	c20 <put_fat.part.6+0x1c4>
     c10:	e1a00004 	mov	r0, r4
     c14:	ebfffdf8 	bl	3fc <move_window.part.4>
     c18:	e3500000 	cmp	r0, #0
     c1c:	18bd87f0 	popne	{r4, r5, r6, r7, r8, r9, sl, pc}
     c20:	e0055008 	and	r5, r5, r8
     c24:	e0899005 	add	r9, r9, r5
     c28:	e5d93000 	ldrb	r3, [r9]
     c2c:	e1a06a06 	lsl	r6, r6, #20
     c30:	e3c3300f 	bic	r3, r3, #15
     c34:	e1836e26 	orr	r6, r3, r6, lsr #28
     c38:	eaffffcb 	b	b6c <put_fat.part.6+0x110>
     c3c:	000001fe 	strdeq	r0, [r0], -lr
     c40:	000001ff 	strdeq	r0, [r0], -pc	; <UNPREDICTABLE>

00000c44 <get_fat.isra.7>:
     c44:	e3510001 	cmp	r1, #1
     c48:	9a00000e 	bls	c88 <get_fat.isra.7+0x44>
     c4c:	e590201c 	ldr	r2, [r0, #28]
     c50:	e92d41f0 	push	{r4, r5, r6, r7, r8, lr}
     c54:	e1510002 	cmp	r1, r2
     c58:	e1a06000 	mov	r6, r0
     c5c:	2a000007 	bcs	c80 <get_fat.isra.7+0x3c>
     c60:	e5d03000 	ldrb	r3, [r0]
     c64:	e1a04001 	mov	r4, r1
     c68:	e3530002 	cmp	r3, #2
     c6c:	0a00003a 	beq	d5c <get_fat.isra.7+0x118>
     c70:	e3530003 	cmp	r3, #3
     c74:	0a000025 	beq	d10 <get_fat.isra.7+0xcc>
     c78:	e3530001 	cmp	r3, #1
     c7c:	0a000003 	beq	c90 <get_fat.isra.7+0x4c>
     c80:	e3a00001 	mov	r0, #1
     c84:	e8bd81f0 	pop	{r4, r5, r6, r7, r8, pc}
     c88:	e3a00001 	mov	r0, #1
     c8c:	e12fff1e 	bx	lr
     c90:	e5903028 	ldr	r3, [r0, #40]	; 0x28
     c94:	e08170a1 	add	r7, r1, r1, lsr #1
     c98:	e590c034 	ldr	ip, [r0, #52]	; 0x34
     c9c:	e08314a7 	add	r1, r3, r7, lsr #9
     ca0:	e151000c 	cmp	r1, ip
     ca4:	0a000004 	beq	cbc <get_fat.isra.7+0x78>
     ca8:	ebfffdd3 	bl	3fc <move_window.part.4>
     cac:	e3500000 	cmp	r0, #0
     cb0:	1a000031 	bne	d7c <get_fat.isra.7+0x138>
     cb4:	e5963028 	ldr	r3, [r6, #40]	; 0x28
     cb8:	e596c034 	ldr	ip, [r6, #52]	; 0x34
     cbc:	e1a02b87 	lsl	r2, r7, #23
     cc0:	e2877001 	add	r7, r7, #1
     cc4:	e1a02ba2 	lsr	r2, r2, #23
     cc8:	e08314a7 	add	r1, r3, r7, lsr #9
     ccc:	e0862002 	add	r2, r6, r2
     cd0:	e151000c 	cmp	r1, ip
     cd4:	e5d25038 	ldrb	r5, [r2, #56]	; 0x38
     cd8:	0a000003 	beq	cec <get_fat.isra.7+0xa8>
     cdc:	e1a00006 	mov	r0, r6
     ce0:	ebfffdc5 	bl	3fc <move_window.part.4>
     ce4:	e3500000 	cmp	r0, #0
     ce8:	1a000023 	bne	d7c <get_fat.isra.7+0x138>
     cec:	e1a03b87 	lsl	r3, r7, #23
     cf0:	e1a03ba3 	lsr	r3, r3, #23
     cf4:	e0863003 	add	r3, r6, r3
     cf8:	e5d30038 	ldrb	r0, [r3, #56]	; 0x38
     cfc:	e3140001 	tst	r4, #1
     d00:	e1850400 	orr	r0, r5, r0, lsl #8
     d04:	0a000026 	beq	da4 <get_fat.isra.7+0x160>
     d08:	e1a00220 	lsr	r0, r0, #4
     d0c:	e8bd81f0 	pop	{r4, r5, r6, r7, r8, pc}
     d10:	e5901028 	ldr	r1, [r0, #40]	; 0x28
     d14:	e5903034 	ldr	r3, [r0, #52]	; 0x34
     d18:	e08113a4 	add	r1, r1, r4, lsr #7
     d1c:	e1510003 	cmp	r1, r3
     d20:	0a000002 	beq	d30 <get_fat.isra.7+0xec>
     d24:	ebfffdb4 	bl	3fc <move_window.part.4>
     d28:	e3500000 	cmp	r0, #0
     d2c:	1a000012 	bne	d7c <get_fat.isra.7+0x138>
     d30:	e1a01104 	lsl	r1, r4, #2
     d34:	e2863038 	add	r3, r6, #56	; 0x38
     d38:	e2011f7f 	and	r1, r1, #508	; 0x1fc
     d3c:	e0832001 	add	r2, r3, r1
     d40:	e1d2c0b2 	ldrh	ip, [r2, #2]
     d44:	e5d22001 	ldrb	r2, [r2, #1]
     d48:	e7d30001 	ldrb	r0, [r3, r1]
     d4c:	e182340c 	orr	r3, r2, ip, lsl #8
     d50:	e1800403 	orr	r0, r0, r3, lsl #8
     d54:	e3c0020f 	bic	r0, r0, #-268435456	; 0xf0000000
     d58:	e8bd81f0 	pop	{r4, r5, r6, r7, r8, pc}
     d5c:	e5901028 	ldr	r1, [r0, #40]	; 0x28
     d60:	e5903034 	ldr	r3, [r0, #52]	; 0x34
     d64:	e0811424 	add	r1, r1, r4, lsr #8
     d68:	e1510003 	cmp	r1, r3
     d6c:	0a000004 	beq	d84 <get_fat.isra.7+0x140>
     d70:	ebfffda1 	bl	3fc <move_window.part.4>
     d74:	e3500000 	cmp	r0, #0
     d78:	0a000001 	beq	d84 <get_fat.isra.7+0x140>
     d7c:	e3e00000 	mvn	r0, #0
     d80:	e8bd81f0 	pop	{r4, r5, r6, r7, r8, pc}
     d84:	e59f1024 	ldr	r1, [pc, #36]	; db0 <get_fat.isra.7+0x16c>
     d88:	e2863038 	add	r3, r6, #56	; 0x38
     d8c:	e0011084 	and	r1, r1, r4, lsl #1
     d90:	e0832001 	add	r2, r3, r1
     d94:	e5d22001 	ldrb	r2, [r2, #1]
     d98:	e7d30001 	ldrb	r0, [r3, r1]
     d9c:	e1800402 	orr	r0, r0, r2, lsl #8
     da0:	e8bd81f0 	pop	{r4, r5, r6, r7, r8, pc}
     da4:	e1a00a00 	lsl	r0, r0, #20
     da8:	e1a00a20 	lsr	r0, r0, #20
     dac:	e8bd81f0 	pop	{r4, r5, r6, r7, r8, pc}
     db0:	000001fe 	strdeq	r0, [r0], -lr

00000db4 <dir_sdi>:
     db4:	e3510602 	cmp	r1, #2097152	; 0x200000
     db8:	2a000039 	bcs	ea4 <dir_sdi+0xf0>
     dbc:	e311001f 	tst	r1, #31
     dc0:	e92d41f0 	push	{r4, r5, r6, r7, r8, lr}
     dc4:	e1a04001 	mov	r4, r1
     dc8:	1a00001a 	bne	e38 <dir_sdi+0x84>
     dcc:	e5901008 	ldr	r1, [r0, #8]
     dd0:	e1a06000 	mov	r6, r0
     dd4:	e3510000 	cmp	r1, #0
     dd8:	e5804010 	str	r4, [r0, #16]
     ddc:	e5907000 	ldr	r7, [r0]
     de0:	0a000016 	beq	e40 <dir_sdi+0x8c>
     de4:	e1d750ba 	ldrh	r5, [r7, #10]
     de8:	e1a05485 	lsl	r5, r5, #9
     dec:	e1540005 	cmp	r4, r5
     df0:	3a00002d 	bcc	eac <dir_sdi+0xf8>
     df4:	e1a00007 	mov	r0, r7
     df8:	ea000007 	b	e1c <dir_sdi+0x68>
     dfc:	e3500001 	cmp	r0, #1
     e00:	9a00000c 	bls	e38 <dir_sdi+0x84>
     e04:	e597301c 	ldr	r3, [r7, #28]
     e08:	e1530000 	cmp	r3, r0
     e0c:	9a000009 	bls	e38 <dir_sdi+0x84>
     e10:	e1550004 	cmp	r5, r4
     e14:	8a000025 	bhi	eb0 <dir_sdi+0xfc>
     e18:	e5960000 	ldr	r0, [r6]
     e1c:	ebffff88 	bl	c44 <get_fat.isra.7>
     e20:	e3700001 	cmn	r0, #1
     e24:	e1a01000 	mov	r1, r0
     e28:	e0444005 	sub	r4, r4, r5
     e2c:	1afffff2 	bne	dfc <dir_sdi+0x48>
     e30:	e3a00001 	mov	r0, #1
     e34:	e8bd81f0 	pop	{r4, r5, r6, r7, r8, pc}
     e38:	e3a00002 	mov	r0, #2
     e3c:	e8bd81f0 	pop	{r4, r5, r6, r7, r8, pc}
     e40:	e5d73000 	ldrb	r3, [r7]
     e44:	e3530002 	cmp	r3, #2
     e48:	8a000010 	bhi	e90 <dir_sdi+0xdc>
     e4c:	e1d730b8 	ldrh	r3, [r7, #8]
     e50:	e15302a4 	cmp	r3, r4, lsr #5
     e54:	9afffff7 	bls	e38 <dir_sdi+0x84>
     e58:	e597302c 	ldr	r3, [r7, #44]	; 0x2c
     e5c:	e5863018 	str	r3, [r6, #24]
     e60:	e3530000 	cmp	r3, #0
     e64:	e5861014 	str	r1, [r6, #20]
     e68:	0afffff2 	beq	e38 <dir_sdi+0x84>
     e6c:	e1a02b84 	lsl	r2, r4, #23
     e70:	e1a02ba2 	lsr	r2, r2, #23
     e74:	e2877038 	add	r7, r7, #56	; 0x38
     e78:	e08344a4 	add	r4, r3, r4, lsr #9
     e7c:	e0877002 	add	r7, r7, r2
     e80:	e586701c 	str	r7, [r6, #28]
     e84:	e5864018 	str	r4, [r6, #24]
     e88:	e3a00000 	mov	r0, #0
     e8c:	e8bd81f0 	pop	{r4, r5, r6, r7, r8, pc}
     e90:	e597302c 	ldr	r3, [r7, #44]	; 0x2c
     e94:	e3530000 	cmp	r3, #0
     e98:	0affffeb 	beq	e4c <dir_sdi+0x98>
     e9c:	e1a01003 	mov	r1, r3
     ea0:	eaffffcf 	b	de4 <dir_sdi+0x30>
     ea4:	e3a00002 	mov	r0, #2
     ea8:	e12fff1e 	bx	lr
     eac:	e597301c 	ldr	r3, [r7, #28]
     eb0:	e2433002 	sub	r3, r3, #2
     eb4:	e2412002 	sub	r2, r1, #2
     eb8:	e1520003 	cmp	r2, r3
     ebc:	23a03000 	movcs	r3, #0
     ec0:	25861014 	strcs	r1, [r6, #20]
     ec4:	25863018 	strcs	r3, [r6, #24]
     ec8:	2affffda 	bcs	e38 <dir_sdi+0x84>
     ecc:	e1d730ba 	ldrh	r3, [r7, #10]
     ed0:	e5970030 	ldr	r0, [r7, #48]	; 0x30
     ed4:	e0230392 	mla	r3, r2, r3, r0
     ed8:	e5863018 	str	r3, [r6, #24]
     edc:	eaffffdf 	b	e60 <dir_sdi+0xac>

00000ee0 <create_chain>:
     ee0:	e92d41f0 	push	{r4, r5, r6, r7, r8, lr}
     ee4:	e2518000 	subs	r8, r1, #0
     ee8:	e1a07000 	mov	r7, r0
     eec:	e5906000 	ldr	r6, [r0]
     ef0:	1a000046 	bne	1010 <create_chain+0x130>
     ef4:	e5965010 	ldr	r5, [r6, #16]
     ef8:	e596301c 	ldr	r3, [r6, #28]
     efc:	e3550000 	cmp	r5, #0
     f00:	03a05001 	moveq	r5, #1
     f04:	1a000038 	bne	fec <create_chain+0x10c>
     f08:	e1a04005 	mov	r4, r5
     f0c:	ea000005 	b	f28 <create_chain+0x48>
     f10:	e3700001 	cmn	r0, #1
     f14:	13500001 	cmpne	r0, #1
     f18:	08bd81f0 	popeq	{r4, r5, r6, r7, r8, pc}
     f1c:	e1540005 	cmp	r4, r5
     f20:	0a000038 	beq	1008 <create_chain+0x128>
     f24:	e596301c 	ldr	r3, [r6, #28]
     f28:	e2844001 	add	r4, r4, #1
     f2c:	e1540003 	cmp	r4, r3
     f30:	3a000002 	bcc	f40 <create_chain+0x60>
     f34:	e3550001 	cmp	r5, #1
     f38:	9a000032 	bls	1008 <create_chain+0x128>
     f3c:	e3a04002 	mov	r4, #2
     f40:	e1a01004 	mov	r1, r4
     f44:	e5970000 	ldr	r0, [r7]
     f48:	ebffff3d 	bl	c44 <get_fat.isra.7>
     f4c:	e3500000 	cmp	r0, #0
     f50:	1affffee 	bne	f10 <create_chain+0x30>
     f54:	e3540001 	cmp	r4, #1
     f58:	9a000028 	bls	1000 <create_chain+0x120>
     f5c:	e596301c 	ldr	r3, [r6, #28]
     f60:	e1540003 	cmp	r4, r3
     f64:	2a000025 	bcs	1000 <create_chain+0x120>
     f68:	e3e02000 	mvn	r2, #0
     f6c:	e1a01004 	mov	r1, r4
     f70:	e1a00006 	mov	r0, r6
     f74:	ebfffeb8 	bl	a5c <put_fat.part.6>
     f78:	e2983000 	adds	r3, r8, #0
     f7c:	13a03001 	movne	r3, #1
     f80:	e3500000 	cmp	r0, #0
     f84:	13a03000 	movne	r3, #0
     f88:	e3530000 	cmp	r3, #0
     f8c:	0a000008 	beq	fb4 <create_chain+0xd4>
     f90:	e3580001 	cmp	r8, #1
     f94:	9a000019 	bls	1000 <create_chain+0x120>
     f98:	e596301c 	ldr	r3, [r6, #28]
     f9c:	e1580003 	cmp	r8, r3
     fa0:	2a000016 	bcs	1000 <create_chain+0x120>
     fa4:	e1a01008 	mov	r1, r8
     fa8:	e1a02004 	mov	r2, r4
     fac:	e1a00006 	mov	r0, r6
     fb0:	ebfffea9 	bl	a5c <put_fat.part.6>
     fb4:	e3500000 	cmp	r0, #0
     fb8:	1a00000e 	bne	ff8 <create_chain+0x118>
     fbc:	e596301c 	ldr	r3, [r6, #28]
     fc0:	e5962014 	ldr	r2, [r6, #20]
     fc4:	e2433002 	sub	r3, r3, #2
     fc8:	e1520003 	cmp	r2, r3
     fcc:	e5d63004 	ldrb	r3, [r6, #4]
     fd0:	92422001 	subls	r2, r2, #1
     fd4:	e3833001 	orr	r3, r3, #1
     fd8:	e5864010 	str	r4, [r6, #16]
     fdc:	95862014 	strls	r2, [r6, #20]
     fe0:	e1a00004 	mov	r0, r4
     fe4:	e5c63004 	strb	r3, [r6, #4]
     fe8:	e8bd81f0 	pop	{r4, r5, r6, r7, r8, pc}
     fec:	e1550003 	cmp	r5, r3
     ff0:	23a05001 	movcs	r5, #1
     ff4:	eaffffc3 	b	f08 <create_chain+0x28>
     ff8:	e3500001 	cmp	r0, #1
     ffc:	0a00000e 	beq	103c <create_chain+0x15c>
    1000:	e3a00001 	mov	r0, #1
    1004:	e8bd81f0 	pop	{r4, r5, r6, r7, r8, pc}
    1008:	e3a00000 	mov	r0, #0
    100c:	e8bd81f0 	pop	{r4, r5, r6, r7, r8, pc}
    1010:	e1a00006 	mov	r0, r6
    1014:	ebffff0a 	bl	c44 <get_fat.isra.7>
    1018:	e3500001 	cmp	r0, #1
    101c:	9afffff7 	bls	1000 <create_chain+0x120>
    1020:	e3700001 	cmn	r0, #1
    1024:	0a000004 	beq	103c <create_chain+0x15c>
    1028:	e596301c 	ldr	r3, [r6, #28]
    102c:	e1530000 	cmp	r3, r0
    1030:	91a05008 	movls	r5, r8
    1034:	9affffb3 	bls	f08 <create_chain+0x28>
    1038:	e8bd81f0 	pop	{r4, r5, r6, r7, r8, pc}
    103c:	e3e00000 	mvn	r0, #0
    1040:	e8bd81f0 	pop	{r4, r5, r6, r7, r8, pc}

00001044 <remove_chain>:
    1044:	e3510001 	cmp	r1, #1
    1048:	e92d41f0 	push	{r4, r5, r6, r7, r8, lr}
    104c:	e5905000 	ldr	r5, [r0]
    1050:	9a000030 	bls	1118 <remove_chain+0xd4>
    1054:	e595301c 	ldr	r3, [r5, #28]
    1058:	e1a04001 	mov	r4, r1
    105c:	e1530001 	cmp	r3, r1
    1060:	9a00002c 	bls	1118 <remove_chain+0xd4>
    1064:	e3520000 	cmp	r2, #0
    1068:	e1a07000 	mov	r7, r0
    106c:	1a000026 	bne	110c <remove_chain+0xc8>
    1070:	e1a00005 	mov	r0, r5
    1074:	e1a01004 	mov	r1, r4
    1078:	ebfffef1 	bl	c44 <get_fat.isra.7>
    107c:	e2506000 	subs	r6, r0, #0
    1080:	0a00001f 	beq	1104 <remove_chain+0xc0>
    1084:	e3560001 	cmp	r6, #1
    1088:	0a000022 	beq	1118 <remove_chain+0xd4>
    108c:	e3760001 	cmn	r6, #1
    1090:	0a000029 	beq	113c <remove_chain+0xf8>
    1094:	e3540001 	cmp	r4, #1
    1098:	9a00001e 	bls	1118 <remove_chain+0xd4>
    109c:	e595301c 	ldr	r3, [r5, #28]
    10a0:	e1540003 	cmp	r4, r3
    10a4:	2a00001b 	bcs	1118 <remove_chain+0xd4>
    10a8:	e1a01004 	mov	r1, r4
    10ac:	e3a02000 	mov	r2, #0
    10b0:	e1a00005 	mov	r0, r5
    10b4:	ebfffe68 	bl	a5c <put_fat.part.6>
    10b8:	e3500000 	cmp	r0, #0
    10bc:	18bd81f0 	popne	{r4, r5, r6, r7, r8, pc}
    10c0:	e595201c 	ldr	r2, [r5, #28]
    10c4:	e5953014 	ldr	r3, [r5, #20]
    10c8:	e2421002 	sub	r1, r2, #2
    10cc:	e1530001 	cmp	r3, r1
    10d0:	35d51004 	ldrbcc	r1, [r5, #4]
    10d4:	32833001 	addcc	r3, r3, #1
    10d8:	33811001 	orrcc	r1, r1, #1
    10dc:	35853014 	strcc	r3, [r5, #20]
    10e0:	35c51004 	strbcc	r1, [r5, #4]
    10e4:	e1520006 	cmp	r2, r6
    10e8:	9a000005 	bls	1104 <remove_chain+0xc0>
    10ec:	e1a04006 	mov	r4, r6
    10f0:	e5970000 	ldr	r0, [r7]
    10f4:	e1a01004 	mov	r1, r4
    10f8:	ebfffed1 	bl	c44 <get_fat.isra.7>
    10fc:	e2506000 	subs	r6, r0, #0
    1100:	1affffdf 	bne	1084 <remove_chain+0x40>
    1104:	e3a00000 	mov	r0, #0
    1108:	e8bd81f0 	pop	{r4, r5, r6, r7, r8, pc}
    110c:	e1530002 	cmp	r3, r2
    1110:	83520001 	cmphi	r2, #1
    1114:	8a000001 	bhi	1120 <remove_chain+0xdc>
    1118:	e3a00002 	mov	r0, #2
    111c:	e8bd81f0 	pop	{r4, r5, r6, r7, r8, pc}
    1120:	e1a01002 	mov	r1, r2
    1124:	e1a00005 	mov	r0, r5
    1128:	e3e02000 	mvn	r2, #0
    112c:	ebfffe4a 	bl	a5c <put_fat.part.6>
    1130:	e3500000 	cmp	r0, #0
    1134:	0affffed 	beq	10f0 <remove_chain+0xac>
    1138:	e8bd81f0 	pop	{r4, r5, r6, r7, r8, pc}
    113c:	e3a00001 	mov	r0, #1
    1140:	e8bd81f0 	pop	{r4, r5, r6, r7, r8, pc}

00001144 <dir_next>:
    1144:	e92d4ff0 	push	{r4, r5, r6, r7, r8, r9, sl, fp, lr}
    1148:	e5905010 	ldr	r5, [r0, #16]
    114c:	e5903018 	ldr	r3, [r0, #24]
    1150:	e2855020 	add	r5, r5, #32
    1154:	e3530000 	cmp	r3, #0
    1158:	13550602 	cmpne	r5, #2097152	; 0x200000
    115c:	e24dd00c 	sub	sp, sp, #12
    1160:	23a00004 	movcs	r0, #4
    1164:	2a00000b 	bcs	1198 <dir_next+0x54>
    1168:	e1a06b85 	lsl	r6, r5, #23
    116c:	e1a06ba6 	lsr	r6, r6, #23
    1170:	e3560000 	cmp	r6, #0
    1174:	e1a07001 	mov	r7, r1
    1178:	e1a04000 	mov	r4, r0
    117c:	e5908000 	ldr	r8, [r0]
    1180:	0a000006 	beq	11a0 <dir_next+0x5c>
    1184:	e2887038 	add	r7, r8, #56	; 0x38
    1188:	e3a00000 	mov	r0, #0
    118c:	e0876006 	add	r6, r7, r6
    1190:	e584601c 	str	r6, [r4, #28]
    1194:	e5845010 	str	r5, [r4, #16]
    1198:	e28dd00c 	add	sp, sp, #12
    119c:	e8bd8ff0 	pop	{r4, r5, r6, r7, r8, r9, sl, fp, pc}
    11a0:	e5901014 	ldr	r1, [r0, #20]
    11a4:	e2833001 	add	r3, r3, #1
    11a8:	e3510000 	cmp	r1, #0
    11ac:	e5803018 	str	r3, [r0, #24]
    11b0:	0a000019 	beq	121c <dir_next+0xd8>
    11b4:	e1d830ba 	ldrh	r3, [r8, #10]
    11b8:	e2433001 	sub	r3, r3, #1
    11bc:	e01394a5 	ands	r9, r3, r5, lsr #9
    11c0:	1affffef 	bne	1184 <dir_next+0x40>
    11c4:	e1a00008 	mov	r0, r8
    11c8:	ebfffe9d 	bl	c44 <get_fat.isra.7>
    11cc:	e3500001 	cmp	r0, #1
    11d0:	e1a0b000 	mov	fp, r0
    11d4:	9a000017 	bls	1238 <dir_next+0xf4>
    11d8:	e3700001 	cmn	r0, #1
    11dc:	0a000048 	beq	1304 <dir_next+0x1c0>
    11e0:	e598001c 	ldr	r0, [r8, #28]
    11e4:	e150000b 	cmp	r0, fp
    11e8:	9a000014 	bls	1240 <dir_next+0xfc>
    11ec:	e24b3002 	sub	r3, fp, #2
    11f0:	e2887038 	add	r7, r8, #56	; 0x38
    11f4:	e58d3004 	str	r3, [sp, #4]
    11f8:	e59d2004 	ldr	r2, [sp, #4]
    11fc:	e2400002 	sub	r0, r0, #2
    1200:	e1500002 	cmp	r0, r2
    1204:	81d890ba 	ldrhhi	r9, [r8, #10]
    1208:	85983030 	ldrhi	r3, [r8, #48]	; 0x30
    120c:	e584b014 	str	fp, [r4, #20]
    1210:	80293992 	mlahi	r9, r2, r9, r3
    1214:	e5849018 	str	r9, [r4, #24]
    1218:	eaffffda 	b	1188 <dir_next+0x44>
    121c:	e1d830b8 	ldrh	r3, [r8, #8]
    1220:	e15302a5 	cmp	r3, r5, lsr #5
    1224:	8affffd6 	bhi	1184 <dir_next+0x40>
    1228:	e3a03000 	mov	r3, #0
    122c:	e3a00004 	mov	r0, #4
    1230:	e5843018 	str	r3, [r4, #24]
    1234:	eaffffd7 	b	1198 <dir_next+0x54>
    1238:	e3a00002 	mov	r0, #2
    123c:	eaffffd5 	b	1198 <dir_next+0x54>
    1240:	e3570000 	cmp	r7, #0
    1244:	0afffff7 	beq	1228 <dir_next+0xe4>
    1248:	e5941014 	ldr	r1, [r4, #20]
    124c:	e1a00004 	mov	r0, r4
    1250:	ebffff22 	bl	ee0 <create_chain>
    1254:	e250b000 	subs	fp, r0, #0
    1258:	03a00007 	moveq	r0, #7
    125c:	0affffcd 	beq	1198 <dir_next+0x54>
    1260:	e35b0001 	cmp	fp, #1
    1264:	0afffff3 	beq	1238 <dir_next+0xf4>
    1268:	e37b0001 	cmn	fp, #1
    126c:	0a000024 	beq	1304 <dir_next+0x1c0>
    1270:	e5d82003 	ldrb	r2, [r8, #3]
    1274:	e3520000 	cmp	r2, #0
    1278:	1a000027 	bne	131c <dir_next+0x1d8>
    127c:	e2887038 	add	r7, r8, #56	; 0x38
    1280:	e1a02007 	mov	r2, r7
    1284:	e3a01000 	mov	r1, #0
    1288:	e2880f8e 	add	r0, r8, #568	; 0x238
    128c:	e4c21001 	strb	r1, [r2], #1
    1290:	e1520000 	cmp	r2, r0
    1294:	1afffffc 	bne	128c <dir_next+0x148>
    1298:	e598001c 	ldr	r0, [r8, #28]
    129c:	e24b3002 	sub	r3, fp, #2
    12a0:	e2402002 	sub	r2, r0, #2
    12a4:	e1530002 	cmp	r3, r2
    12a8:	23a02000 	movcs	r2, #0
    12ac:	35982030 	ldrcc	r2, [r8, #48]	; 0x30
    12b0:	e1d810ba 	ldrh	r1, [r8, #10]
    12b4:	e58d3004 	str	r3, [sp, #4]
    12b8:	30222193 	mlacc	r2, r3, r1, r2
    12bc:	e3510000 	cmp	r1, #0
    12c0:	e5882034 	str	r2, [r8, #52]	; 0x34
    12c4:	0a000019 	beq	1330 <dir_next+0x1ec>
    12c8:	e3a0a000 	mov	sl, #0
    12cc:	ea000005 	b	12e8 <dir_next+0x1a4>
    12d0:	e5982034 	ldr	r2, [r8, #52]	; 0x34
    12d4:	e1d800ba 	ldrh	r0, [r8, #10]
    12d8:	e2822001 	add	r2, r2, #1
    12dc:	e150000a 	cmp	r0, sl
    12e0:	e5882034 	str	r2, [r8, #52]	; 0x34
    12e4:	9a000008 	bls	130c <dir_next+0x1c8>
    12e8:	e3a03001 	mov	r3, #1
    12ec:	e1a00008 	mov	r0, r8
    12f0:	e5c83003 	strb	r3, [r8, #3]
    12f4:	ebfffbd7 	bl	258 <sync_window.part.3>
    12f8:	e3500000 	cmp	r0, #0
    12fc:	e28aa001 	add	sl, sl, #1
    1300:	0afffff2 	beq	12d0 <dir_next+0x18c>
    1304:	e3a00001 	mov	r0, #1
    1308:	eaffffa2 	b	1198 <dir_next+0x54>
    130c:	e598001c 	ldr	r0, [r8, #28]
    1310:	e042200a 	sub	r2, r2, sl
    1314:	e5882034 	str	r2, [r8, #52]	; 0x34
    1318:	eaffffb6 	b	11f8 <dir_next+0xb4>
    131c:	e1a00008 	mov	r0, r8
    1320:	ebfffbcc 	bl	258 <sync_window.part.3>
    1324:	e3500000 	cmp	r0, #0
    1328:	0affffd3 	beq	127c <dir_next+0x138>
    132c:	eafffff4 	b	1304 <dir_next+0x1c0>
    1330:	e1a0a001 	mov	sl, r1
    1334:	eafffff5 	b	1310 <dir_next+0x1cc>

00001338 <dir_alloc>:
    1338:	e92d41f0 	push	{r4, r5, r6, r7, r8, lr}
    133c:	e1a08001 	mov	r8, r1
    1340:	e3a01000 	mov	r1, #0
    1344:	e1a04000 	mov	r4, r0
    1348:	e5906000 	ldr	r6, [r0]
    134c:	ebfffe98 	bl	db4 <dir_sdi>
    1350:	e2507000 	subs	r7, r0, #0
    1354:	1a000019 	bne	13c0 <dir_alloc+0x88>
    1358:	e1a05007 	mov	r5, r7
    135c:	e5941018 	ldr	r1, [r4, #24]
    1360:	e5963034 	ldr	r3, [r6, #52]	; 0x34
    1364:	e2855001 	add	r5, r5, #1
    1368:	e1510003 	cmp	r1, r3
    136c:	0a000003 	beq	1380 <dir_alloc+0x48>
    1370:	e1a00006 	mov	r0, r6
    1374:	ebfffc20 	bl	3fc <move_window.part.4>
    1378:	e3500000 	cmp	r0, #0
    137c:	1a00000e 	bne	13bc <dir_alloc+0x84>
    1380:	e594301c 	ldr	r3, [r4, #28]
    1384:	e5d33000 	ldrb	r3, [r3]
    1388:	e3530000 	cmp	r3, #0
    138c:	135300e5 	cmpne	r3, #229	; 0xe5
    1390:	13a03000 	movne	r3, #0
    1394:	03a03001 	moveq	r3, #1
    1398:	11a05003 	movne	r5, r3
    139c:	1a000001 	bne	13a8 <dir_alloc+0x70>
    13a0:	e1550008 	cmp	r5, r8
    13a4:	0a000007 	beq	13c8 <dir_alloc+0x90>
    13a8:	e3a01001 	mov	r1, #1
    13ac:	e1a00004 	mov	r0, r4
    13b0:	ebffff63 	bl	1144 <dir_next>
    13b4:	e3500000 	cmp	r0, #0
    13b8:	0affffe7 	beq	135c <dir_alloc+0x24>
    13bc:	e1a07000 	mov	r7, r0
    13c0:	e3570004 	cmp	r7, #4
    13c4:	03a07007 	moveq	r7, #7
    13c8:	e1a00007 	mov	r0, r7
    13cc:	e8bd81f0 	pop	{r4, r5, r6, r7, r8, pc}

000013d0 <dir_read>:
    13d0:	e92d4ff0 	push	{r4, r5, r6, r7, r8, r9, sl, fp, lr}
    13d4:	e3a070ff 	mov	r7, #255	; 0xff
    13d8:	e1a04000 	mov	r4, r0
    13dc:	e5905000 	ldr	r5, [r0]
    13e0:	e24dd00c 	sub	sp, sp, #12
    13e4:	e1a06001 	mov	r6, r1
    13e8:	e1a08007 	mov	r8, r7
    13ec:	e3a00004 	mov	r0, #4
    13f0:	e59fb1e4 	ldr	fp, [pc, #484]	; 15dc <dir_read+0x20c>
    13f4:	ea000005 	b	1410 <dir_read+0x40>
    13f8:	e3a080ff 	mov	r8, #255	; 0xff
    13fc:	e3a01000 	mov	r1, #0
    1400:	e1a00004 	mov	r0, r4
    1404:	ebffff4e 	bl	1144 <dir_next>
    1408:	e3500000 	cmp	r0, #0
    140c:	1a00004c 	bne	1544 <dir_read+0x174>
    1410:	e5941018 	ldr	r1, [r4, #24]
    1414:	e3510000 	cmp	r1, #0
    1418:	0a00004d 	beq	1554 <dir_read+0x184>
    141c:	e5953034 	ldr	r3, [r5, #52]	; 0x34
    1420:	e1510003 	cmp	r1, r3
    1424:	0a000003 	beq	1438 <dir_read+0x68>
    1428:	e1a00005 	mov	r0, r5
    142c:	ebfffbf2 	bl	3fc <move_window.part.4>
    1430:	e3500000 	cmp	r0, #0
    1434:	1a000042 	bne	1544 <dir_read+0x174>
    1438:	e594201c 	ldr	r2, [r4, #28]
    143c:	e5d23000 	ldrb	r3, [r2]
    1440:	e3530000 	cmp	r3, #0
    1444:	0a00003d 	beq	1540 <dir_read+0x170>
    1448:	e353002e 	cmp	r3, #46	; 0x2e
    144c:	135300e5 	cmpne	r3, #229	; 0xe5
    1450:	e5d2100b 	ldrb	r1, [r2, #11]
    1454:	e201103f 	and	r1, r1, #63	; 0x3f
    1458:	e5c41006 	strb	r1, [r4, #6]
    145c:	0affffe5 	beq	13f8 <dir_read+0x28>
    1460:	e3c10020 	bic	r0, r1, #32
    1464:	e2400008 	sub	r0, r0, #8
    1468:	e16f0f10 	clz	r0, r0
    146c:	e1a002a0 	lsr	r0, r0, #5
    1470:	e1500006 	cmp	r0, r6
    1474:	1affffdf 	bne	13f8 <dir_read+0x28>
    1478:	e351000f 	cmp	r1, #15
    147c:	1a000046 	bne	159c <dir_read+0x1cc>
    1480:	e3130040 	tst	r3, #64	; 0x40
    1484:	0a00002a 	beq	1534 <dir_read+0x164>
    1488:	e5941010 	ldr	r1, [r4, #16]
    148c:	e5d2700d 	ldrb	r7, [r2, #13]
    1490:	e20330bf 	and	r3, r3, #191	; 0xbf
    1494:	e584102c 	str	r1, [r4, #44]	; 0x2c
    1498:	e5d2100d 	ldrb	r1, [r2, #13]
    149c:	e1510007 	cmp	r1, r7
    14a0:	1affffd4 	bne	13f8 <dir_read+0x28>
    14a4:	e5d2001b 	ldrb	r0, [r2, #27]
    14a8:	e5d2101a 	ldrb	r1, [r2, #26]
    14ac:	e1911400 	orrs	r1, r1, r0, lsl #8
    14b0:	1affffd0 	bne	13f8 <dir_read+0x28>
    14b4:	e3a01001 	mov	r1, #1
    14b8:	e5d20000 	ldrb	r0, [r2]
    14bc:	e595900c 	ldr	r9, [r5, #12]
    14c0:	e3c00040 	bic	r0, r0, #64	; 0x40
    14c4:	e2400001 	sub	r0, r0, #1
    14c8:	e59fc110 	ldr	ip, [pc, #272]	; 15e0 <dir_read+0x210>
    14cc:	e080e110 	add	lr, r0, r0, lsl r1
    14d0:	e58d3000 	str	r3, [sp]
    14d4:	e1a08001 	mov	r8, r1
    14d8:	e58d9004 	str	r9, [sp, #4]
    14dc:	e080010e 	add	r0, r0, lr, lsl #2
    14e0:	e28ca00c 	add	sl, ip, #12
    14e4:	e1a03009 	mov	r3, r9
    14e8:	ea000007 	b	150c <dir_read+0x13c>
    14ec:	e350003f 	cmp	r0, #63	; 0x3f
    14f0:	8affffc0 	bhi	13f8 <dir_read+0x28>
    14f4:	e1a08001 	mov	r8, r1
    14f8:	e18310b9 	strh	r1, [r3, r9]
    14fc:	e2800001 	add	r0, r0, #1
    1500:	e15a000c 	cmp	sl, ip
    1504:	0a000017 	beq	1568 <dir_read+0x198>
    1508:	e4dc1001 	ldrb	r1, [ip], #1
    150c:	e082e001 	add	lr, r2, r1
    1510:	e5dee001 	ldrb	lr, [lr, #1]
    1514:	e7d21001 	ldrb	r1, [r2, r1]
    1518:	e3580000 	cmp	r8, #0
    151c:	e1a09080 	lsl	r9, r0, #1
    1520:	e181140e 	orr	r1, r1, lr, lsl #8
    1524:	1afffff0 	bne	14ec <dir_read+0x11c>
    1528:	e151000b 	cmp	r1, fp
    152c:	0afffff3 	beq	1500 <dir_read+0x130>
    1530:	eaffffb0 	b	13f8 <dir_read+0x28>
    1534:	e1580003 	cmp	r8, r3
    1538:	1affffae 	bne	13f8 <dir_read+0x28>
    153c:	eaffffd5 	b	1498 <dir_read+0xc8>
    1540:	e3a00004 	mov	r0, #4
    1544:	e3a03000 	mov	r3, #0
    1548:	e5843018 	str	r3, [r4, #24]
    154c:	e28dd00c 	add	sp, sp, #12
    1550:	e8bd8ff0 	pop	{r4, r5, r6, r7, r8, r9, sl, fp, pc}
    1554:	e3500000 	cmp	r0, #0
    1558:	1afffff9 	bne	1544 <dir_read+0x174>
    155c:	e3a00000 	mov	r0, #0
    1560:	e28dd00c 	add	sp, sp, #12
    1564:	e8bd8ff0 	pop	{r4, r5, r6, r7, r8, r9, sl, fp, pc}
    1568:	e5d22000 	ldrb	r2, [r2]
    156c:	e59d3000 	ldr	r3, [sp]
    1570:	e3120040 	tst	r2, #64	; 0x40
    1574:	0a000005 	beq	1590 <dir_read+0x1c0>
    1578:	e350003f 	cmp	r0, #63	; 0x3f
    157c:	8affff9d 	bhi	13f8 <dir_read+0x28>
    1580:	e3a02000 	mov	r2, #0
    1584:	e59d1004 	ldr	r1, [sp, #4]
    1588:	e1a00080 	lsl	r0, r0, #1
    158c:	e18120b0 	strh	r2, [r1, r0]
    1590:	e2433001 	sub	r3, r3, #1
    1594:	e6ef8073 	uxtb	r8, r3
    1598:	eaffff97 	b	13fc <dir_read+0x2c>
    159c:	e3580000 	cmp	r8, #0
    15a0:	1a000009 	bne	15cc <dir_read+0x1fc>
    15a4:	e282000b 	add	r0, r2, #11
    15a8:	e1a03388 	lsl	r3, r8, #7
    15ac:	e4d21001 	ldrb	r1, [r2], #1
    15b0:	e18330a8 	orr	r3, r3, r8, lsr #1
    15b4:	e6e13073 	uxtab	r3, r1, r3
    15b8:	e1520000 	cmp	r2, r0
    15bc:	e6ef8073 	uxtb	r8, r3
    15c0:	1afffff8 	bne	15a8 <dir_read+0x1d8>
    15c4:	e1570008 	cmp	r7, r8
    15c8:	0affffe3 	beq	155c <dir_read+0x18c>
    15cc:	e3e03000 	mvn	r3, #0
    15d0:	e3a00000 	mov	r0, #0
    15d4:	e584302c 	str	r3, [r4, #44]	; 0x2c
    15d8:	eaffffdb 	b	154c <dir_read+0x17c>
    15dc:	0000ffff 	strdeq	pc, [r0], -pc	; <UNPREDICTABLE>
    15e0:	00000081 	andeq	r0, r0, r1, lsl #1

000015e4 <dir_remove>:
    15e4:	e590102c 	ldr	r1, [r0, #44]	; 0x2c
    15e8:	e92d41f0 	push	{r4, r5, r6, r7, r8, lr}
    15ec:	e3710001 	cmn	r1, #1
    15f0:	e1a04000 	mov	r4, r0
    15f4:	e5905000 	ldr	r5, [r0]
    15f8:	e5906010 	ldr	r6, [r0, #16]
    15fc:	1a000017 	bne	1660 <dir_remove+0x7c>
    1600:	e3e0801a 	mvn	r8, #26
    1604:	e3a07001 	mov	r7, #1
    1608:	ea000004 	b	1620 <dir_remove+0x3c>
    160c:	e3a01000 	mov	r1, #0
    1610:	e1a00004 	mov	r0, r4
    1614:	ebfffeca 	bl	1144 <dir_next>
    1618:	e3500000 	cmp	r0, #0
    161c:	1a000013 	bne	1670 <dir_remove+0x8c>
    1620:	e5941018 	ldr	r1, [r4, #24]
    1624:	e5953034 	ldr	r3, [r5, #52]	; 0x34
    1628:	e1510003 	cmp	r1, r3
    162c:	0a000003 	beq	1640 <dir_remove+0x5c>
    1630:	e1a00005 	mov	r0, r5
    1634:	ebfffb70 	bl	3fc <move_window.part.4>
    1638:	e3500000 	cmp	r0, #0
    163c:	1a00000b 	bne	1670 <dir_remove+0x8c>
    1640:	e594301c 	ldr	r3, [r4, #28]
    1644:	e5c38000 	strb	r8, [r3]
    1648:	e5c57003 	strb	r7, [r5, #3]
    164c:	e5943010 	ldr	r3, [r4, #16]
    1650:	e1530006 	cmp	r3, r6
    1654:	3affffec 	bcc	160c <dir_remove+0x28>
    1658:	e3a00000 	mov	r0, #0
    165c:	e8bd81f0 	pop	{r4, r5, r6, r7, r8, pc}
    1660:	ebfffdd3 	bl	db4 <dir_sdi>
    1664:	e3500000 	cmp	r0, #0
    1668:	18bd81f0 	popne	{r4, r5, r6, r7, r8, pc}
    166c:	eaffffe3 	b	1600 <dir_remove+0x1c>
    1670:	e3500004 	cmp	r0, #4
    1674:	03a00002 	moveq	r0, #2
    1678:	e8bd81f0 	pop	{r4, r5, r6, r7, r8, pc}

0000167c <dir_find>:
    167c:	e92d4ff0 	push	{r4, r5, r6, r7, r8, r9, sl, fp, lr}
    1680:	e3a01000 	mov	r1, #0
    1684:	e24dd014 	sub	sp, sp, #20
    1688:	e1a05000 	mov	r5, r0
    168c:	e5907000 	ldr	r7, [r0]
    1690:	ebfffdc7 	bl	db4 <dir_sdi>
    1694:	e3500000 	cmp	r0, #0
    1698:	1a000036 	bne	1778 <dir_find+0xfc>
    169c:	e3e03000 	mvn	r3, #0
    16a0:	e3a090ff 	mov	r9, #255	; 0xff
    16a4:	e1a08003 	mov	r8, r3
    16a8:	e1a0a009 	mov	sl, r9
    16ac:	e585302c 	str	r3, [r5, #44]	; 0x2c
    16b0:	ea000008 	b	16d8 <dir_find+0x5c>
    16b4:	e353000f 	cmp	r3, #15
    16b8:	0a000030 	beq	1780 <dir_find+0x104>
    16bc:	e3a0a0ff 	mov	sl, #255	; 0xff
    16c0:	e585802c 	str	r8, [r5, #44]	; 0x2c
    16c4:	e3a01000 	mov	r1, #0
    16c8:	e1a00005 	mov	r0, r5
    16cc:	ebfffe9c 	bl	1144 <dir_next>
    16d0:	e3500000 	cmp	r0, #0
    16d4:	1a000027 	bne	1778 <dir_find+0xfc>
    16d8:	e5951018 	ldr	r1, [r5, #24]
    16dc:	e5973034 	ldr	r3, [r7, #52]	; 0x34
    16e0:	e1510003 	cmp	r1, r3
    16e4:	0a000003 	beq	16f8 <dir_find+0x7c>
    16e8:	e1a00007 	mov	r0, r7
    16ec:	ebfffb42 	bl	3fc <move_window.part.4>
    16f0:	e3500000 	cmp	r0, #0
    16f4:	1a00001f 	bne	1778 <dir_find+0xfc>
    16f8:	e595401c 	ldr	r4, [r5, #28]
    16fc:	e5d46000 	ldrb	r6, [r4]
    1700:	e3560000 	cmp	r6, #0
    1704:	0a00006d 	beq	18c0 <dir_find+0x244>
    1708:	e5d4200b 	ldrb	r2, [r4, #11]
    170c:	e35600e5 	cmp	r6, #229	; 0xe5
    1710:	e202303f 	and	r3, r2, #63	; 0x3f
    1714:	e5c53006 	strb	r3, [r5, #6]
    1718:	0affffe7 	beq	16bc <dir_find+0x40>
    171c:	e3120008 	tst	r2, #8
    1720:	1affffe3 	bne	16b4 <dir_find+0x38>
    1724:	e353000f 	cmp	r3, #15
    1728:	0a000014 	beq	1780 <dir_find+0x104>
    172c:	e35a0000 	cmp	sl, #0
    1730:	0a000055 	beq	188c <dir_find+0x210>
    1734:	e5d5002b 	ldrb	r0, [r5, #43]	; 0x2b
    1738:	e2100001 	ands	r0, r0, #1
    173c:	1affffde 	bne	16bc <dir_find+0x40>
    1740:	e5d51020 	ldrb	r1, [r5, #32]
    1744:	e4d43001 	ldrb	r3, [r4], #1
    1748:	e2852021 	add	r2, r5, #33	; 0x21
    174c:	e0433001 	sub	r3, r3, r1
    1750:	e285c02b 	add	ip, r5, #43	; 0x2b
    1754:	e3530000 	cmp	r3, #0
    1758:	1affffd7 	bne	16bc <dir_find+0x40>
    175c:	e4d21001 	ldrb	r1, [r2], #1
    1760:	e4d43001 	ldrb	r3, [r4], #1
    1764:	e15c0002 	cmp	ip, r2
    1768:	e0433001 	sub	r3, r3, r1
    176c:	1afffff8 	bne	1754 <dir_find+0xd8>
    1770:	e3530000 	cmp	r3, #0
    1774:	1affffd0 	bne	16bc <dir_find+0x40>
    1778:	e28dd014 	add	sp, sp, #20
    177c:	e8bd8ff0 	pop	{r4, r5, r6, r7, r8, r9, sl, fp, pc}
    1780:	e5d5302b 	ldrb	r3, [r5, #43]	; 0x2b
    1784:	e3130040 	tst	r3, #64	; 0x40
    1788:	1affffcd 	bne	16c4 <dir_find+0x48>
    178c:	e3160040 	tst	r6, #64	; 0x40
    1790:	0a000039 	beq	187c <dir_find+0x200>
    1794:	e5953010 	ldr	r3, [r5, #16]
    1798:	e5d4900d 	ldrb	r9, [r4, #13]
    179c:	e20660bf 	and	r6, r6, #191	; 0xbf
    17a0:	e585302c 	str	r3, [r5, #44]	; 0x2c
    17a4:	e5d4300d 	ldrb	r3, [r4, #13]
    17a8:	e1530009 	cmp	r3, r9
    17ac:	1a000034 	bne	1884 <dir_find+0x208>
    17b0:	e5d4201b 	ldrb	r2, [r4, #27]
    17b4:	e5d4301a 	ldrb	r3, [r4, #26]
    17b8:	e1933402 	orrs	r3, r3, r2, lsl #8
    17bc:	1a000030 	bne	1884 <dir_find+0x208>
    17c0:	e3a01001 	mov	r1, #1
    17c4:	e5d4b000 	ldrb	fp, [r4]
    17c8:	e59f3140 	ldr	r3, [pc, #320]	; 1910 <dir_find+0x294>
    17cc:	e20bb03f 	and	fp, fp, #63	; 0x3f
    17d0:	e24bb001 	sub	fp, fp, #1
    17d4:	e597c00c 	ldr	ip, [r7, #12]
    17d8:	e08b211b 	add	r2, fp, fp, lsl r1
    17dc:	e08bb102 	add	fp, fp, r2, lsl #2
    17e0:	e58d6008 	str	r6, [sp, #8]
    17e4:	e58d5004 	str	r5, [sp, #4]
    17e8:	e1a06004 	mov	r6, r4
    17ec:	e1a00001 	mov	r0, r1
    17f0:	e58dc00c 	str	ip, [sp, #12]
    17f4:	e283200c 	add	r2, r3, #12
    17f8:	e58d7000 	str	r7, [sp]
    17fc:	e1a04003 	mov	r4, r3
    1800:	e1a0500c 	mov	r5, ip
    1804:	ea00000f 	b	1848 <dir_find+0x1cc>
    1808:	e35b003f 	cmp	fp, #63	; 0x3f
    180c:	8a000016 	bhi	186c <dir_find+0x1f0>
    1810:	e1a0000a 	mov	r0, sl
    1814:	ebfffffe 	bl	0 <ff_wtoupper>
    1818:	e1a07000 	mov	r7, r0
    181c:	e1a0008b 	lsl	r0, fp, #1
    1820:	e19500b0 	ldrh	r0, [r5, r0]
    1824:	ebfffffe 	bl	0 <ff_wtoupper>
    1828:	e1570000 	cmp	r7, r0
    182c:	e28bb001 	add	fp, fp, #1
    1830:	1a00000d 	bne	186c <dir_find+0x1f0>
    1834:	e1a0000a 	mov	r0, sl
    1838:	e59f20d4 	ldr	r2, [pc, #212]	; 1914 <dir_find+0x298>
    183c:	e1520004 	cmp	r2, r4
    1840:	0a000021 	beq	18cc <dir_find+0x250>
    1844:	e4d41001 	ldrb	r1, [r4], #1
    1848:	e086c001 	add	ip, r6, r1
    184c:	e5dcc001 	ldrb	ip, [ip, #1]
    1850:	e7d6a001 	ldrb	sl, [r6, r1]
    1854:	e3500000 	cmp	r0, #0
    1858:	e18aa40c 	orr	sl, sl, ip, lsl #8
    185c:	1affffe9 	bne	1808 <dir_find+0x18c>
    1860:	e59f30b0 	ldr	r3, [pc, #176]	; 1918 <dir_find+0x29c>
    1864:	e15a0003 	cmp	sl, r3
    1868:	0afffff3 	beq	183c <dir_find+0x1c0>
    186c:	e59d7000 	ldr	r7, [sp]
    1870:	e59d5004 	ldr	r5, [sp, #4]
    1874:	e3a0a0ff 	mov	sl, #255	; 0xff
    1878:	eaffff91 	b	16c4 <dir_find+0x48>
    187c:	e15a0006 	cmp	sl, r6
    1880:	0affffc7 	beq	17a4 <dir_find+0x128>
    1884:	e3a0a0ff 	mov	sl, #255	; 0xff
    1888:	eaffff8d 	b	16c4 <dir_find+0x48>
    188c:	e1a02004 	mov	r2, r4
    1890:	e284000b 	add	r0, r4, #11
    1894:	e4d21001 	ldrb	r1, [r2], #1
    1898:	e1a0338a 	lsl	r3, sl, #7
    189c:	e183a0aa 	orr	sl, r3, sl, lsr #1
    18a0:	e6e1a07a 	uxtab	sl, r1, sl
    18a4:	e1500002 	cmp	r0, r2
    18a8:	e6efa07a 	uxtb	sl, sl
    18ac:	1afffff8 	bne	1894 <dir_find+0x218>
    18b0:	e159000a 	cmp	r9, sl
    18b4:	1affff9e 	bne	1734 <dir_find+0xb8>
    18b8:	e3a00000 	mov	r0, #0
    18bc:	eaffffad 	b	1778 <dir_find+0xfc>
    18c0:	e3a00004 	mov	r0, #4
    18c4:	e28dd014 	add	sp, sp, #20
    18c8:	e8bd8ff0 	pop	{r4, r5, r6, r7, r8, r9, sl, fp, pc}
    18cc:	e1a04006 	mov	r4, r6
    18d0:	e99d0060 	ldmib	sp, {r5, r6}
    18d4:	e2900000 	adds	r0, r0, #0
    18d8:	13a00001 	movne	r0, #1
    18dc:	e5d43000 	ldrb	r3, [r4]
    18e0:	e59d7000 	ldr	r7, [sp]
    18e4:	e0103323 	ands	r3, r0, r3, lsr #6
    18e8:	1a000002 	bne	18f8 <dir_find+0x27c>
    18ec:	e246a001 	sub	sl, r6, #1
    18f0:	e6efa07a 	uxtb	sl, sl
    18f4:	eaffff72 	b	16c4 <dir_find+0x48>
    18f8:	e59d300c 	ldr	r3, [sp, #12]
    18fc:	e1a0b08b 	lsl	fp, fp, #1
    1900:	e19330bb 	ldrh	r3, [r3, fp]
    1904:	e3530000 	cmp	r3, #0
    1908:	0afffff7 	beq	18ec <dir_find+0x270>
    190c:	eaffffdc 	b	1884 <dir_find+0x208>
    1910:	00000081 	andeq	r0, r0, r1, lsl #1
    1914:	0000008d 	andeq	r0, r0, sp, lsl #1
    1918:	0000ffff 	strdeq	pc, [r0], -pc	; <UNPREDICTABLE>

0000191c <follow_path>:
    191c:	e92d4ff0 	push	{r4, r5, r6, r7, r8, r9, sl, fp, lr}
    1920:	e5d13000 	ldrb	r3, [r1]
    1924:	e24dd014 	sub	sp, sp, #20
    1928:	e353002f 	cmp	r3, #47	; 0x2f
    192c:	1353005c 	cmpne	r3, #92	; 0x5c
    1930:	e1a06001 	mov	r6, r1
    1934:	e1a07000 	mov	r7, r0
    1938:	e590b000 	ldr	fp, [r0]
    193c:	0a000035 	beq	1a18 <follow_path+0xfc>
    1940:	e59b3018 	ldr	r3, [fp, #24]
    1944:	e5803008 	str	r3, [r0, #8]
    1948:	e5d60000 	ldrb	r0, [r6]
    194c:	e350001f 	cmp	r0, #31
    1950:	9a000038 	bls	1a38 <follow_path+0x11c>
    1954:	e3e0201f 	mvn	r2, #31
    1958:	e3e0101e 	mvn	r1, #30
    195c:	e1a0300b 	mov	r3, fp
    1960:	e0422007 	sub	r2, r2, r7
    1964:	e58d2000 	str	r2, [sp]
    1968:	e0412007 	sub	r2, r1, r7
    196c:	e58d2004 	str	r2, [sp, #4]
    1970:	e6ff0070 	uxth	r0, r0
    1974:	e350001f 	cmp	r0, #31
    1978:	e593800c 	ldr	r8, [r3, #12]
    197c:	9a000056 	bls	1adc <follow_path+0x1c0>
    1980:	e350002f 	cmp	r0, #47	; 0x2f
    1984:	1350005c 	cmpne	r0, #92	; 0x5c
    1988:	0a000031 	beq	1a54 <follow_path+0x138>
    198c:	e2489002 	sub	r9, r8, #2
    1990:	e1a05006 	mov	r5, r6
    1994:	e3a04001 	mov	r4, #1
    1998:	ea00000a 	b	19c8 <follow_path+0xac>
    199c:	e1e900b2 	strh	r0, [r9, #2]!
    19a0:	e5f50001 	ldrb	r0, [r5, #1]!
    19a4:	e2843001 	add	r3, r4, #1
    19a8:	e350001f 	cmp	r0, #31
    19ac:	9a0000ee 	bls	1d6c <follow_path+0x450>
    19b0:	e350005c 	cmp	r0, #92	; 0x5c
    19b4:	1350002f 	cmpne	r0, #47	; 0x2f
    19b8:	0a000027 	beq	1a5c <follow_path+0x140>
    19bc:	e3530041 	cmp	r3, #65	; 0x41
    19c0:	0a000010 	beq	1a08 <follow_path+0xec>
    19c4:	e1a04003 	mov	r4, r3
    19c8:	e3a01001 	mov	r1, #1
    19cc:	ebfffffe 	bl	0 <ff_convert>
    19d0:	e3500000 	cmp	r0, #0
    19d4:	0a00000b 	beq	1a08 <follow_path+0xec>
    19d8:	e350007f 	cmp	r0, #127	; 0x7f
    19dc:	8affffee 	bhi	199c <follow_path+0x80>
    19e0:	e3500022 	cmp	r0, #34	; 0x22
    19e4:	0a000007 	beq	1a08 <follow_path+0xec>
    19e8:	e3a0302a 	mov	r3, #42	; 0x2a
    19ec:	e59f2498 	ldr	r2, [pc, #1176]	; 1e8c <follow_path+0x570>
    19f0:	ea000002 	b	1a00 <follow_path+0xe4>
    19f4:	e5f23001 	ldrb	r3, [r2, #1]!
    19f8:	e3530000 	cmp	r3, #0
    19fc:	0affffe6 	beq	199c <follow_path+0x80>
    1a00:	e1500003 	cmp	r0, r3
    1a04:	1afffffa 	bne	19f4 <follow_path+0xd8>
    1a08:	e3a00006 	mov	r0, #6
    1a0c:	e28dd014 	add	sp, sp, #20
    1a10:	e8bd8ff0 	pop	{r4, r5, r6, r7, r8, r9, sl, fp, pc}
    1a14:	e5f63001 	ldrb	r3, [r6, #1]!
    1a18:	e353005c 	cmp	r3, #92	; 0x5c
    1a1c:	1353002f 	cmpne	r3, #47	; 0x2f
    1a20:	0afffffb 	beq	1a14 <follow_path+0xf8>
    1a24:	e3a03000 	mov	r3, #0
    1a28:	e5873008 	str	r3, [r7, #8]
    1a2c:	e5d60000 	ldrb	r0, [r6]
    1a30:	e350001f 	cmp	r0, #31
    1a34:	8affffc6 	bhi	1954 <follow_path+0x38>
    1a38:	e3e0307f 	mvn	r3, #127	; 0x7f
    1a3c:	e1a00007 	mov	r0, r7
    1a40:	e3a01000 	mov	r1, #0
    1a44:	e5c7302b 	strb	r3, [r7, #43]	; 0x2b
    1a48:	e28dd014 	add	sp, sp, #20
    1a4c:	e8bd4ff0 	pop	{r4, r5, r6, r7, r8, r9, sl, fp, lr}
    1a50:	eafffcd7 	b	db4 <dir_sdi>
    1a54:	e3a03001 	mov	r3, #1
    1a58:	e3a04000 	mov	r4, #0
    1a5c:	e7d62003 	ldrb	r2, [r6, r3]
    1a60:	e0861003 	add	r1, r6, r3
    1a64:	e352005c 	cmp	r2, #92	; 0x5c
    1a68:	1352002f 	cmpne	r2, #47	; 0x2f
    1a6c:	1a0000f8 	bne	1e54 <follow_path+0x538>
    1a70:	e2833001 	add	r3, r3, #1
    1a74:	e0863003 	add	r3, r6, r3
    1a78:	e1a06003 	mov	r6, r3
    1a7c:	e4d32001 	ldrb	r2, [r3], #1
    1a80:	e352005c 	cmp	r2, #92	; 0x5c
    1a84:	1352002f 	cmpne	r2, #47	; 0x2f
    1a88:	0afffffa 	beq	1a78 <follow_path+0x15c>
    1a8c:	e3540001 	cmp	r4, #1
    1a90:	e3a09000 	mov	r9, #0
    1a94:	0a0000b8 	beq	1d7c <follow_path+0x460>
    1a98:	e3540002 	cmp	r4, #2
    1a9c:	1a0000cb 	bne	1dd0 <follow_path+0x4b4>
    1aa0:	e1d830b2 	ldrh	r3, [r8, #2]
    1aa4:	e353002e 	cmp	r3, #46	; 0x2e
    1aa8:	0a0000e1 	beq	1e34 <follow_path+0x518>
    1aac:	e353002e 	cmp	r3, #46	; 0x2e
    1ab0:	13530020 	cmpne	r3, #32
    1ab4:	1a00000d 	bne	1af0 <follow_path+0x1d4>
    1ab8:	e2442106 	sub	r2, r4, #-2147483647	; 0x80000001
    1abc:	e0882082 	add	r2, r8, r2, lsl #1
    1ac0:	ea000003 	b	1ad4 <follow_path+0x1b8>
    1ac4:	e17230b2 	ldrh	r3, [r2, #-2]!
    1ac8:	e3530020 	cmp	r3, #32
    1acc:	1353002e 	cmpne	r3, #46	; 0x2e
    1ad0:	1a000006 	bne	1af0 <follow_path+0x1d4>
    1ad4:	e2544001 	subs	r4, r4, #1
    1ad8:	1afffff9 	bne	1ac4 <follow_path+0x1a8>
    1adc:	e3a03000 	mov	r3, #0
    1ae0:	e3a00006 	mov	r0, #6
    1ae4:	e1c830b0 	strh	r3, [r8]
    1ae8:	e28dd014 	add	sp, sp, #20
    1aec:	e8bd8ff0 	pop	{r4, r5, r6, r7, r8, r9, sl, fp, pc}
    1af0:	e3a02000 	mov	r2, #0
    1af4:	e3a01020 	mov	r1, #32
    1af8:	e1a03084 	lsl	r3, r4, #1
    1afc:	e18820b3 	strh	r2, [r8, r3]
    1b00:	e287002b 	add	r0, r7, #43	; 0x2b
    1b04:	e0882003 	add	r2, r8, r3
    1b08:	e2873020 	add	r3, r7, #32
    1b0c:	e4c31001 	strb	r1, [r3], #1
    1b10:	e1530000 	cmp	r3, r0
    1b14:	1afffffc 	bne	1b0c <follow_path+0x1f0>
    1b18:	e1d800b0 	ldrh	r0, [r8]
    1b1c:	e3500020 	cmp	r0, #32
    1b20:	1350002e 	cmpne	r0, #46	; 0x2e
    1b24:	03a05001 	moveq	r5, #1
    1b28:	13a05000 	movne	r5, #0
    1b2c:	1a000007 	bne	1b50 <follow_path+0x234>
    1b30:	e1a03008 	mov	r3, r8
    1b34:	e3a05000 	mov	r5, #0
    1b38:	e1f300b2 	ldrh	r0, [r3, #2]!
    1b3c:	e2855001 	add	r5, r5, #1
    1b40:	e350002e 	cmp	r0, #46	; 0x2e
    1b44:	13500020 	cmpne	r0, #32
    1b48:	0afffffa 	beq	1b38 <follow_path+0x21c>
    1b4c:	e3899003 	orr	r9, r9, #3
    1b50:	e1a03002 	mov	r3, r2
    1b54:	e17320b2 	ldrh	r2, [r3, #-2]!
    1b58:	e352002e 	cmp	r2, #46	; 0x2e
    1b5c:	0a000001 	beq	1b68 <follow_path+0x24c>
    1b60:	e2544001 	subs	r4, r4, #1
    1b64:	1afffffa 	bne	1b54 <follow_path+0x238>
    1b68:	e3a03008 	mov	r3, #8
    1b6c:	e1a01006 	mov	r1, r6
    1b70:	e3a0a000 	mov	sl, #0
    1b74:	e1a06008 	mov	r6, r8
    1b78:	e1a0200a 	mov	r2, sl
    1b7c:	e1a08003 	mov	r8, r3
    1b80:	e1a03001 	mov	r3, r1
    1b84:	e3500000 	cmp	r0, #0
    1b88:	e2855001 	add	r5, r5, #1
    1b8c:	0a000013 	beq	1be0 <follow_path+0x2c4>
    1b90:	e3500020 	cmp	r0, #32
    1b94:	0a000031 	beq	1c60 <follow_path+0x344>
    1b98:	e240102e 	sub	r1, r0, #46	; 0x2e
    1b9c:	e16f1f11 	clz	r1, r1
    1ba0:	e1550004 	cmp	r5, r4
    1ba4:	e1a012a1 	lsr	r1, r1, #5
    1ba8:	03a01000 	moveq	r1, #0
    1bac:	e3510000 	cmp	r1, #0
    1bb0:	1a00002a 	bne	1c60 <follow_path+0x344>
    1bb4:	e1550004 	cmp	r5, r4
    1bb8:	115a0008 	cmpne	sl, r8
    1bbc:	23a01001 	movcs	r1, #1
    1bc0:	33a01000 	movcc	r1, #0
    1bc4:	3a000040 	bcc	1ccc <follow_path+0x3b0>
    1bc8:	e358000b 	cmp	r8, #11
    1bcc:	0a0000a2 	beq	1e5c <follow_path+0x540>
    1bd0:	e1550004 	cmp	r5, r4
    1bd4:	0a000082 	beq	1de4 <follow_path+0x4c8>
    1bd8:	e3899003 	orr	r9, r9, #3
    1bdc:	9a000080 	bls	1de4 <follow_path+0x4c8>
    1be0:	e5d71020 	ldrb	r1, [r7, #32]
    1be4:	e1a06003 	mov	r6, r3
    1be8:	e35100e5 	cmp	r1, #229	; 0xe5
    1bec:	03a01005 	moveq	r1, #5
    1bf0:	05c71020 	strbeq	r1, [r7, #32]
    1bf4:	e3580008 	cmp	r8, #8
    1bf8:	0a00007f 	beq	1dfc <follow_path+0x4e0>
    1bfc:	e202300c 	and	r3, r2, #12
    1c00:	e353000c 	cmp	r3, #12
    1c04:	0a000002 	beq	1c14 <follow_path+0x2f8>
    1c08:	e2022003 	and	r2, r2, #3
    1c0c:	e3520003 	cmp	r2, #3
    1c10:	1a000082 	bne	1e20 <follow_path+0x504>
    1c14:	e3899002 	orr	r9, r9, #2
    1c18:	e5c7902b 	strb	r9, [r7, #43]	; 0x2b
    1c1c:	e1a00007 	mov	r0, r7
    1c20:	ebfffe95 	bl	167c <dir_find>
    1c24:	e3500000 	cmp	r0, #0
    1c28:	e5d7302b 	ldrb	r3, [r7, #43]	; 0x2b
    1c2c:	0a00000f 	beq	1c70 <follow_path+0x354>
    1c30:	e3500004 	cmp	r0, #4
    1c34:	1affff74 	bne	1a0c <follow_path+0xf0>
    1c38:	e3130020 	tst	r3, #32
    1c3c:	e2033004 	and	r3, r3, #4
    1c40:	0a00008e 	beq	1e80 <follow_path+0x564>
    1c44:	e3530000 	cmp	r3, #0
    1c48:	0a00001c 	beq	1cc0 <follow_path+0x3a4>
    1c4c:	e3e0307f 	mvn	r3, #127	; 0x7f
    1c50:	e3a00000 	mov	r0, #0
    1c54:	e5c7302b 	strb	r3, [r7, #43]	; 0x2b
    1c58:	e28dd014 	add	sp, sp, #20
    1c5c:	e8bd8ff0 	pop	{r4, r5, r6, r7, r8, r9, sl, fp, pc}
    1c60:	e3899003 	orr	r9, r9, #3
    1c64:	e1a01085 	lsl	r1, r5, #1
    1c68:	e19600b1 	ldrh	r0, [r6, r1]
    1c6c:	eaffffc4 	b	1b84 <follow_path+0x268>
    1c70:	e3130004 	tst	r3, #4
    1c74:	1affff64 	bne	1a0c <follow_path+0xf0>
    1c78:	e5d73006 	ldrb	r3, [r7, #6]
    1c7c:	e3130010 	tst	r3, #16
    1c80:	0a00007c 	beq	1e78 <follow_path+0x55c>
    1c84:	e5972010 	ldr	r2, [r7, #16]
    1c88:	e28b3038 	add	r3, fp, #56	; 0x38
    1c8c:	e1a02b82 	lsl	r2, r2, #23
    1c90:	e1a02ba2 	lsr	r2, r2, #23
    1c94:	e0833002 	add	r3, r3, r2
    1c98:	e5db0000 	ldrb	r0, [fp]
    1c9c:	e5d3101b 	ldrb	r1, [r3, #27]
    1ca0:	e5d3201a 	ldrb	r2, [r3, #26]
    1ca4:	e3500003 	cmp	r0, #3
    1ca8:	e1822401 	orr	r2, r2, r1, lsl #8
    1cac:	05d31015 	ldrbeq	r1, [r3, #21]
    1cb0:	05d33014 	ldrbeq	r3, [r3, #20]
    1cb4:	01833401 	orreq	r3, r3, r1, lsl #8
    1cb8:	01822803 	orreq	r2, r2, r3, lsl #16
    1cbc:	e5872008 	str	r2, [r7, #8]
    1cc0:	e5973000 	ldr	r3, [r7]
    1cc4:	e5d60000 	ldrb	r0, [r6]
    1cc8:	eaffff28 	b	1970 <follow_path+0x54>
    1ccc:	e350007f 	cmp	r0, #127	; 0x7f
    1cd0:	8a000014 	bhi	1d28 <follow_path+0x40c>
    1cd4:	e350002b 	cmp	r0, #43	; 0x2b
    1cd8:	13a0102c 	movne	r1, #44	; 0x2c
    1cdc:	159fc1ac 	ldrne	ip, [pc, #428]	; 1e90 <follow_path+0x574>
    1ce0:	0a00001b 	beq	1d54 <follow_path+0x438>
    1ce4:	e1510000 	cmp	r1, r0
    1ce8:	0a000019 	beq	1d54 <follow_path+0x438>
    1cec:	e5fc1001 	ldrb	r1, [ip, #1]!
    1cf0:	e3510000 	cmp	r1, #0
    1cf4:	1afffffa 	bne	1ce4 <follow_path+0x3c8>
    1cf8:	e2401041 	sub	r1, r0, #65	; 0x41
    1cfc:	e3510019 	cmp	r1, #25
    1d00:	93822002 	orrls	r2, r2, #2
    1d04:	96ef0070 	uxtbls	r0, r0
    1d08:	9a000013 	bls	1d5c <follow_path+0x440>
    1d0c:	e2401061 	sub	r1, r0, #97	; 0x61
    1d10:	e3510019 	cmp	r1, #25
    1d14:	92400020 	subls	r0, r0, #32
    1d18:	86ef0070 	uxtbhi	r0, r0
    1d1c:	96ef0070 	uxtbls	r0, r0
    1d20:	93822001 	orrls	r2, r2, #1
    1d24:	ea00000c 	b	1d5c <follow_path+0x440>
    1d28:	e1cd20f8 	strd	r2, [sp, #8]
    1d2c:	ebfffffe 	bl	0 <ff_convert>
    1d30:	e1cd20d8 	ldrd	r2, [sp, #8]
    1d34:	e3500000 	cmp	r0, #0
    1d38:	e3899002 	orr	r9, r9, #2
    1d3c:	0a000004 	beq	1d54 <follow_path+0x438>
    1d40:	e59f114c 	ldr	r1, [pc, #332]	; 1e94 <follow_path+0x578>
    1d44:	e0810000 	add	r0, r1, r0
    1d48:	e5500080 	ldrb	r0, [r0, #-128]	; 0xffffff80
    1d4c:	e3500000 	cmp	r0, #0
    1d50:	1affffdf 	bne	1cd4 <follow_path+0x3b8>
    1d54:	e3a0005f 	mov	r0, #95	; 0x5f
    1d58:	e3899003 	orr	r9, r9, #3
    1d5c:	e087100a 	add	r1, r7, sl
    1d60:	e5c10020 	strb	r0, [r1, #32]
    1d64:	e28aa001 	add	sl, sl, #1
    1d68:	eaffffbd 	b	1c64 <follow_path+0x348>
    1d6c:	e3540001 	cmp	r4, #1
    1d70:	e0866003 	add	r6, r6, r3
    1d74:	e3a09004 	mov	r9, #4
    1d78:	1affff46 	bne	1a98 <follow_path+0x17c>
    1d7c:	e1d830b0 	ldrh	r3, [r8]
    1d80:	e353002e 	cmp	r3, #46	; 0x2e
    1d84:	1affff48 	bne	1aac <follow_path+0x190>
    1d88:	e3a02002 	mov	r2, #2
    1d8c:	e89d5000 	ldm	sp, {ip, lr}
    1d90:	e3a03000 	mov	r3, #0
    1d94:	e3a01020 	mov	r1, #32
    1d98:	e18830b2 	strh	r3, [r8, r2]
    1d9c:	e3a0002e 	mov	r0, #46	; 0x2e
    1da0:	e0873001 	add	r3, r7, r1
    1da4:	ea000004 	b	1dbc <follow_path+0x4a0>
    1da8:	e1a02003 	mov	r2, r3
    1dac:	e6c2100e 	strb	r1, [r2], lr
    1db0:	e352000b 	cmp	r2, #11
    1db4:	0a000023 	beq	1e48 <follow_path+0x52c>
    1db8:	e2833001 	add	r3, r3, #1
    1dbc:	e08c2003 	add	r2, ip, r3
    1dc0:	e1540002 	cmp	r4, r2
    1dc4:	9afffff7 	bls	1da8 <follow_path+0x48c>
    1dc8:	e5c30000 	strb	r0, [r3]
    1dcc:	eafffff9 	b	1db8 <follow_path+0x49c>
    1dd0:	e3540000 	cmp	r4, #0
    1dd4:	0affff40 	beq	1adc <follow_path+0x1c0>
    1dd8:	e0883084 	add	r3, r8, r4, lsl #1
    1ddc:	e15330b2 	ldrh	r3, [r3, #-2]
    1de0:	eaffff31 	b	1aac <follow_path+0x190>
    1de4:	e1a02102 	lsl	r2, r2, #2
    1de8:	e6ef2072 	uxtb	r2, r2
    1dec:	e1a05004 	mov	r5, r4
    1df0:	e3a0800b 	mov	r8, #11
    1df4:	e3a0a008 	mov	sl, #8
    1df8:	eaffff99 	b	1c64 <follow_path+0x348>
    1dfc:	e1a02102 	lsl	r2, r2, #2
    1e00:	e202300c 	and	r3, r2, #12
    1e04:	e353000c 	cmp	r3, #12
    1e08:	0affff81 	beq	1c14 <follow_path+0x2f8>
    1e0c:	e3190002 	tst	r9, #2
    1e10:	1affff80 	bne	1c18 <follow_path+0x2fc>
    1e14:	e3530004 	cmp	r3, #4
    1e18:	03899008 	orreq	r9, r9, #8
    1e1c:	eaffff7d 	b	1c18 <follow_path+0x2fc>
    1e20:	e3190002 	tst	r9, #2
    1e24:	1affff7b 	bne	1c18 <follow_path+0x2fc>
    1e28:	e3520001 	cmp	r2, #1
    1e2c:	03899010 	orreq	r9, r9, #16
    1e30:	eafffff7 	b	1e14 <follow_path+0x4f8>
    1e34:	e1d820b0 	ldrh	r2, [r8]
    1e38:	e352002e 	cmp	r2, #46	; 0x2e
    1e3c:	1affff1a 	bne	1aac <follow_path+0x190>
    1e40:	e3a02004 	mov	r2, #4
    1e44:	eaffffd0 	b	1d8c <follow_path+0x470>
    1e48:	e3899020 	orr	r9, r9, #32
    1e4c:	e5c7902b 	strb	r9, [r7, #43]	; 0x2b
    1e50:	eaffff71 	b	1c1c <follow_path+0x300>
    1e54:	e1a06001 	mov	r6, r1
    1e58:	eaffff0b 	b	1a8c <follow_path+0x170>
    1e5c:	e1a06003 	mov	r6, r3
    1e60:	e5d73020 	ldrb	r3, [r7, #32]
    1e64:	e3899003 	orr	r9, r9, #3
    1e68:	e35300e5 	cmp	r3, #229	; 0xe5
    1e6c:	03a03005 	moveq	r3, #5
    1e70:	05c73020 	strbeq	r3, [r7, #32]
    1e74:	eaffff60 	b	1bfc <follow_path+0x2e0>
    1e78:	e3a00005 	mov	r0, #5
    1e7c:	eafffee2 	b	1a0c <follow_path+0xf0>
    1e80:	e3530000 	cmp	r3, #0
    1e84:	03a00005 	moveq	r0, #5
    1e88:	eafffedf 	b	1a0c <follow_path+0xf0>
    1e8c:	00000001 	andeq	r0, r0, r1
    1e90:	00000001 	andeq	r0, r0, r1
    1e94:	00000000 	andeq	r0, r0, r0

00001e98 <dir_register>:
    1e98:	e92d4ff0 	push	{r4, r5, r6, r7, r8, r9, sl, fp, lr}
    1e9c:	e5d0602b 	ldrb	r6, [r0, #43]	; 0x2b
    1ea0:	e24dd034 	sub	sp, sp, #52	; 0x34
    1ea4:	e21660a0 	ands	r6, r6, #160	; 0xa0
    1ea8:	13a0a006 	movne	sl, #6
    1eac:	1a000074 	bne	2084 <dir_register+0x1ec>
    1eb0:	e5903000 	ldr	r3, [r0]
    1eb4:	e58d3004 	str	r3, [sp, #4]
    1eb8:	e593300c 	ldr	r3, [r3, #12]
    1ebc:	e1d320b0 	ldrh	r2, [r3]
    1ec0:	e3520000 	cmp	r2, #0
    1ec4:	0a000102 	beq	22d4 <dir_register+0x43c>
    1ec8:	e1f320b2 	ldrh	r2, [r3, #2]!
    1ecc:	e2866001 	add	r6, r6, #1
    1ed0:	e3520000 	cmp	r2, #0
    1ed4:	1afffffb 	bne	1ec8 <dir_register+0x30>
    1ed8:	e2805020 	add	r5, r0, #32
    1edc:	e1a04000 	mov	r4, r0
    1ee0:	e1a01005 	mov	r1, r5
    1ee4:	e28d0024 	add	r0, sp, #36	; 0x24
    1ee8:	e3a0200c 	mov	r2, #12
    1eec:	ebfff8d2 	bl	23c <mem_cpy.part.0>
    1ef0:	e5dd302f 	ldrb	r3, [sp, #47]	; 0x2f
    1ef4:	e3130001 	tst	r3, #1
    1ef8:	0a000055 	beq	2054 <dir_register+0x1bc>
    1efc:	e3a03040 	mov	r3, #64	; 0x40
    1f00:	e3a09001 	mov	r9, #1
    1f04:	e5c4302b 	strb	r3, [r4, #43]	; 0x2b
    1f08:	e3e0701f 	mvn	r7, #31
    1f0c:	e3a0200b 	mov	r2, #11
    1f10:	e28d1024 	add	r1, sp, #36	; 0x24
    1f14:	e1a00005 	mov	r0, r5
    1f18:	ebfff8c7 	bl	23c <mem_cpy.part.0>
    1f1c:	e1a03009 	mov	r3, r9
    1f20:	e59f83d4 	ldr	r8, [pc, #980]	; 22fc <dir_register+0x464>
    1f24:	e0477004 	sub	r7, r7, r4
    1f28:	e3a02007 	mov	r2, #7
    1f2c:	e28dc024 	add	ip, sp, #36	; 0x24
    1f30:	e203000f 	and	r0, r3, #15
    1f34:	e2801030 	add	r1, r0, #48	; 0x30
    1f38:	e3510039 	cmp	r1, #57	; 0x39
    1f3c:	82801037 	addhi	r1, r0, #55	; 0x37
    1f40:	e353000f 	cmp	r3, #15
    1f44:	e2422001 	sub	r2, r2, #1
    1f48:	e56c1001 	strb	r1, [ip, #-1]!
    1f4c:	e1a03223 	lsr	r3, r3, #4
    1f50:	8afffff6 	bhi	1f30 <dir_register+0x98>
    1f54:	e3a0107e 	mov	r1, #126	; 0x7e
    1f58:	e28d3030 	add	r3, sp, #48	; 0x30
    1f5c:	e0833002 	add	r3, r3, r2
    1f60:	e3520000 	cmp	r2, #0
    1f64:	e5431014 	strb	r1, [r3, #-20]	; 0xffffffec
    1f68:	0a00006d 	beq	2124 <dir_register+0x28c>
    1f6c:	e5d43020 	ldrb	r3, [r4, #32]
    1f70:	e3530020 	cmp	r3, #32
    1f74:	0a00006a 	beq	2124 <dir_register+0x28c>
    1f78:	e1a01005 	mov	r1, r5
    1f7c:	e3a03000 	mov	r3, #0
    1f80:	ea000002 	b	1f90 <dir_register+0xf8>
    1f84:	e5f10001 	ldrb	r0, [r1, #1]!
    1f88:	e3500020 	cmp	r0, #32
    1f8c:	0a000002 	beq	1f9c <dir_register+0x104>
    1f90:	e2833001 	add	r3, r3, #1
    1f94:	e1520003 	cmp	r2, r3
    1f98:	1afffff9 	bne	1f84 <dir_register+0xec>
    1f9c:	e2833020 	add	r3, r3, #32
    1fa0:	e0843003 	add	r3, r4, r3
    1fa4:	e3520007 	cmp	r2, #7
    1fa8:	e28d1030 	add	r1, sp, #48	; 0x30
    1fac:	e0811002 	add	r1, r1, r2
    1fb0:	83a01020 	movhi	r1, #32
    1fb4:	95511014 	ldrbls	r1, [r1, #-20]	; 0xffffffec
    1fb8:	92822001 	addls	r2, r2, #1
    1fbc:	e4c31001 	strb	r1, [r3], #1
    1fc0:	e0871003 	add	r1, r7, r3
    1fc4:	e3510007 	cmp	r1, #7
    1fc8:	9afffff5 	bls	1fa4 <dir_register+0x10c>
    1fcc:	e1a00004 	mov	r0, r4
    1fd0:	ebfffda9 	bl	167c <dir_find>
    1fd4:	e3500000 	cmp	r0, #0
    1fd8:	1a000018 	bne	2040 <dir_register+0x1a8>
    1fdc:	e2899001 	add	r9, r9, #1
    1fe0:	e3590064 	cmp	r9, #100	; 0x64
    1fe4:	0a0000bc 	beq	22dc <dir_register+0x444>
    1fe8:	e59d3004 	ldr	r3, [sp, #4]
    1fec:	e1a00005 	mov	r0, r5
    1ff0:	e593a00c 	ldr	sl, [r3, #12]
    1ff4:	e3a0200b 	mov	r2, #11
    1ff8:	e28d1024 	add	r1, sp, #36	; 0x24
    1ffc:	ebfff88e 	bl	23c <mem_cpy.part.0>
    2000:	e3590005 	cmp	r9, #5
    2004:	824a0002 	subhi	r0, sl, #2
    2008:	81a03009 	movhi	r3, r9
    200c:	9a000042 	bls	211c <dir_register+0x284>
    2010:	e1f020b2 	ldrh	r2, [r0, #2]!
    2014:	e3520000 	cmp	r2, #0
    2018:	0affffc2 	beq	1f28 <dir_register+0x90>
    201c:	e3a01010 	mov	r1, #16
    2020:	e202c001 	and	ip, r2, #1
    2024:	e08c3083 	add	r3, ip, r3, lsl #1
    2028:	e3130801 	tst	r3, #65536	; 0x10000
    202c:	10233008 	eorne	r3, r3, r8
    2030:	e2511001 	subs	r1, r1, #1
    2034:	e1a020a2 	lsr	r2, r2, #1
    2038:	1afffff8 	bne	2020 <dir_register+0x188>
    203c:	eafffff3 	b	2010 <dir_register+0x178>
    2040:	e3500004 	cmp	r0, #4
    2044:	e1a0a000 	mov	sl, r0
    2048:	1a00000d 	bne	2084 <dir_register+0x1ec>
    204c:	e5dd302f 	ldrb	r3, [sp, #47]	; 0x2f
    2050:	e5c4302b 	strb	r3, [r4, #43]	; 0x2b
    2054:	e3130002 	tst	r3, #2
    2058:	0a00000c 	beq	2090 <dir_register+0x1f8>
    205c:	e59f329c 	ldr	r3, [pc, #668]	; 2300 <dir_register+0x468>
    2060:	e286600c 	add	r6, r6, #12
    2064:	e0832693 	umull	r2, r3, r3, r6
    2068:	e1a03123 	lsr	r3, r3, #2
    206c:	e2831001 	add	r1, r3, #1
    2070:	e1a00004 	mov	r0, r4
    2074:	e58d3008 	str	r3, [sp, #8]
    2078:	ebfffcae 	bl	1338 <dir_alloc>
    207c:	e250a000 	subs	sl, r0, #0
    2080:	0a000029 	beq	212c <dir_register+0x294>
    2084:	e1a0000a 	mov	r0, sl
    2088:	e28dd034 	add	sp, sp, #52	; 0x34
    208c:	e8bd8ff0 	pop	{r4, r5, r6, r7, r8, r9, sl, fp, pc}
    2090:	e3a01001 	mov	r1, #1
    2094:	e1a00004 	mov	r0, r4
    2098:	ebfffca6 	bl	1338 <dir_alloc>
    209c:	e250a000 	subs	sl, r0, #0
    20a0:	1afffff7 	bne	2084 <dir_register+0x1ec>
    20a4:	e59d3004 	ldr	r3, [sp, #4]
    20a8:	e5941018 	ldr	r1, [r4, #24]
    20ac:	e5933034 	ldr	r3, [r3, #52]	; 0x34
    20b0:	e1510003 	cmp	r1, r3
    20b4:	0a000003 	beq	20c8 <dir_register+0x230>
    20b8:	e59d0004 	ldr	r0, [sp, #4]
    20bc:	ebfff8ce 	bl	3fc <move_window.part.4>
    20c0:	e250a000 	subs	sl, r0, #0
    20c4:	1affffee 	bne	2084 <dir_register+0x1ec>
    20c8:	e3a01000 	mov	r1, #0
    20cc:	e594301c 	ldr	r3, [r4, #28]
    20d0:	e2832020 	add	r2, r3, #32
    20d4:	e4c31001 	strb	r1, [r3], #1
    20d8:	e1530002 	cmp	r3, r2
    20dc:	1afffffc 	bne	20d4 <dir_register+0x23c>
    20e0:	e3a0a000 	mov	sl, #0
    20e4:	e1a01005 	mov	r1, r5
    20e8:	e594001c 	ldr	r0, [r4, #28]
    20ec:	e3a0200b 	mov	r2, #11
    20f0:	ebfff851 	bl	23c <mem_cpy.part.0>
    20f4:	e3a02001 	mov	r2, #1
    20f8:	e1a0000a 	mov	r0, sl
    20fc:	e5d4302b 	ldrb	r3, [r4, #43]	; 0x2b
    2100:	e594101c 	ldr	r1, [r4, #28]
    2104:	e2033018 	and	r3, r3, #24
    2108:	e5c1300c 	strb	r3, [r1, #12]
    210c:	e59d3004 	ldr	r3, [sp, #4]
    2110:	e5c32003 	strb	r2, [r3, #3]
    2114:	e28dd034 	add	sp, sp, #52	; 0x34
    2118:	e8bd8ff0 	pop	{r4, r5, r6, r7, r8, r9, sl, fp, pc}
    211c:	e1a03009 	mov	r3, r9
    2120:	eaffff80 	b	1f28 <dir_register+0x90>
    2124:	e3a03000 	mov	r3, #0
    2128:	eaffff9b 	b	1f9c <dir_register+0x104>
    212c:	e356000c 	cmp	r6, #12
    2130:	0affffdb 	beq	20a4 <dir_register+0x20c>
    2134:	e5941010 	ldr	r1, [r4, #16]
    2138:	e59d3008 	ldr	r3, [sp, #8]
    213c:	e1a00004 	mov	r0, r4
    2140:	e0411283 	sub	r1, r1, r3, lsl #5
    2144:	ebfffb1a 	bl	db4 <dir_sdi>
    2148:	e250a000 	subs	sl, r0, #0
    214c:	1affffcc 	bne	2084 <dir_register+0x1ec>
    2150:	e1a02005 	mov	r2, r5
    2154:	e284002b 	add	r0, r4, #43	; 0x2b
    2158:	e1a0338a 	lsl	r3, sl, #7
    215c:	e4d21001 	ldrb	r1, [r2], #1
    2160:	e18330aa 	orr	r3, r3, sl, lsr #1
    2164:	e6e13073 	uxtab	r3, r1, r3
    2168:	e1520000 	cmp	r2, r0
    216c:	e6efa073 	uxtb	sl, r3
    2170:	1afffff8 	bne	2158 <dir_register+0x2c0>
    2174:	e59f8188 	ldr	r8, [pc, #392]	; 2304 <dir_register+0x46c>
    2178:	e59f9188 	ldr	r9, [pc, #392]	; 2308 <dir_register+0x470>
    217c:	e58da010 	str	sl, [sp, #16]
    2180:	e58d5014 	str	r5, [sp, #20]
    2184:	e58d400c 	str	r4, [sp, #12]
    2188:	e59d300c 	ldr	r3, [sp, #12]
    218c:	e5931018 	ldr	r1, [r3, #24]
    2190:	e59d3004 	ldr	r3, [sp, #4]
    2194:	e5933034 	ldr	r3, [r3, #52]	; 0x34
    2198:	e1510003 	cmp	r1, r3
    219c:	0a000003 	beq	21b0 <dir_register+0x318>
    21a0:	e59d0004 	ldr	r0, [sp, #4]
    21a4:	ebfff894 	bl	3fc <move_window.part.4>
    21a8:	e3500000 	cmp	r0, #0
    21ac:	1a000050 	bne	22f4 <dir_register+0x45c>
    21b0:	e3a0c000 	mov	ip, #0
    21b4:	e3a0e00f 	mov	lr, #15
    21b8:	e59d100c 	ldr	r1, [sp, #12]
    21bc:	e59d4004 	ldr	r4, [sp, #4]
    21c0:	e5dda008 	ldrb	sl, [sp, #8]
    21c4:	e591001c 	ldr	r0, [r1, #28]
    21c8:	e594700c 	ldr	r7, [r4, #12]
    21cc:	e24a2001 	sub	r2, sl, #1
    21d0:	e59d4010 	ldr	r4, [sp, #16]
    21d4:	e0821082 	add	r1, r2, r2, lsl #1
    21d8:	e1a0300c 	mov	r3, ip
    21dc:	e0822101 	add	r2, r2, r1, lsl #2
    21e0:	e5c0c00c 	strb	ip, [r0, #12]
    21e4:	e1a0100c 	mov	r1, ip
    21e8:	e5c0c01a 	strb	ip, [r0, #26]
    21ec:	e5c0c01b 	strb	ip, [r0, #27]
    21f0:	e5c0400d 	strb	r4, [r0, #13]
    21f4:	e5c0e00b 	strb	lr, [r0, #11]
    21f8:	e3a0c001 	mov	ip, #1
    21fc:	e3e05000 	mvn	r5, #0
    2200:	ea00000b 	b	2234 <dir_register+0x39c>
    2204:	e35e000c 	cmp	lr, #12
    2208:	8a000020 	bhi	2290 <dir_register+0x3f8>
    220c:	e1a03008 	mov	r3, r8
    2210:	e5d6c080 	ldrb	ip, [r6, #128]	; 0x80
    2214:	e2811002 	add	r1, r1, #2
    2218:	e7c0500c 	strb	r5, [r0, ip]
    221c:	e080c00c 	add	ip, r0, ip
    2220:	e5cc5001 	strb	r5, [ip, #1]
    2224:	e351000c 	cmp	r1, #12
    2228:	e089c001 	add	ip, r9, r1
    222c:	8a000011 	bhi	2278 <dir_register+0x3e0>
    2230:	e5dcc080 	ldrb	ip, [ip, #128]	; 0x80
    2234:	e281e001 	add	lr, r1, #1
    2238:	e1530008 	cmp	r3, r8
    223c:	e1a0b082 	lsl	fp, r2, #1
    2240:	e080400c 	add	r4, r0, ip
    2244:	e089600e 	add	r6, r9, lr
    2248:	0a000025 	beq	22e4 <dir_register+0x44c>
    224c:	e19730bb 	ldrh	r3, [r7, fp]
    2250:	e2822001 	add	r2, r2, #1
    2254:	e1a0b423 	lsr	fp, r3, #8
    2258:	e3530000 	cmp	r3, #0
    225c:	e7c0300c 	strb	r3, [r0, ip]
    2260:	e5c4b001 	strb	fp, [r4, #1]
    2264:	0affffe6 	beq	2204 <dir_register+0x36c>
    2268:	e1a0100e 	mov	r1, lr
    226c:	e351000c 	cmp	r1, #12
    2270:	e089c001 	add	ip, r9, r1
    2274:	9affffed 	bls	2230 <dir_register+0x398>
    2278:	e1530008 	cmp	r3, r8
    227c:	0a000003 	beq	2290 <dir_register+0x3f8>
    2280:	e1a02082 	lsl	r2, r2, #1
    2284:	e19730b2 	ldrh	r3, [r7, r2]
    2288:	e3530000 	cmp	r3, #0
    228c:	1a000000 	bne	2294 <dir_register+0x3fc>
    2290:	e38aa040 	orr	sl, sl, #64	; 0x40
    2294:	e3a03001 	mov	r3, #1
    2298:	e59d2004 	ldr	r2, [sp, #4]
    229c:	e5c0a000 	strb	sl, [r0]
    22a0:	e3a01000 	mov	r1, #0
    22a4:	e5c23003 	strb	r3, [r2, #3]
    22a8:	e59d000c 	ldr	r0, [sp, #12]
    22ac:	ebfffba4 	bl	1144 <dir_next>
    22b0:	e3500000 	cmp	r0, #0
    22b4:	1a00000e 	bne	22f4 <dir_register+0x45c>
    22b8:	e59d3008 	ldr	r3, [sp, #8]
    22bc:	e2533001 	subs	r3, r3, #1
    22c0:	e58d3008 	str	r3, [sp, #8]
    22c4:	1affffaf 	bne	2188 <dir_register+0x2f0>
    22c8:	e59d5014 	ldr	r5, [sp, #20]
    22cc:	e59d400c 	ldr	r4, [sp, #12]
    22d0:	eaffff73 	b	20a4 <dir_register+0x20c>
    22d4:	e1a06002 	mov	r6, r2
    22d8:	eafffefe 	b	1ed8 <dir_register+0x40>
    22dc:	e3a0a007 	mov	sl, #7
    22e0:	eaffff67 	b	2084 <dir_register+0x1ec>
    22e4:	e7c0500c 	strb	r5, [r0, ip]
    22e8:	e1a0100e 	mov	r1, lr
    22ec:	e5c45001 	strb	r5, [r4, #1]
    22f0:	eaffffcb 	b	2224 <dir_register+0x38c>
    22f4:	e1a0a000 	mov	sl, r0
    22f8:	eaffff61 	b	2084 <dir_register+0x1ec>
    22fc:	00011021 	andeq	r1, r1, r1, lsr #32
    2300:	4ec4ec4f 	cdpmi	12, 12, cr14, cr4, cr15, {2}
    2304:	0000ffff 	strdeq	pc, [r0], -pc	; <UNPREDICTABLE>
    2308:	00000000 	andeq	r0, r0, r0

0000230c <get_fileinfo>:
    230c:	e92d41f0 	push	{r4, r5, r6, r7, r8, lr}
    2310:	e3a04000 	mov	r4, #0
    2314:	e5908000 	ldr	r8, [r0]
    2318:	e5c14016 	strb	r4, [r1, #22]
    231c:	e5903018 	ldr	r3, [r0, #24]
    2320:	e1530004 	cmp	r3, r4
    2324:	08bd81f0 	popeq	{r4, r5, r6, r7, r8, pc}
    2328:	e590302c 	ldr	r3, [r0, #44]	; 0x2c
    232c:	e1a05001 	mov	r5, r1
    2330:	e3730001 	cmn	r3, #1
    2334:	e1a06000 	mov	r6, r0
    2338:	0a000018 	beq	23a0 <get_fileinfo+0x94>
    233c:	e598300c 	ldr	r3, [r8, #12]
    2340:	e1d300b0 	ldrh	r0, [r3]
    2344:	e1500004 	cmp	r0, r4
    2348:	12817015 	addne	r7, r1, #21
    234c:	13a04001 	movne	r4, #1
    2350:	1a000007 	bne	2374 <get_fileinfo+0x68>
    2354:	ea00000c 	b	238c <get_fileinfo+0x80>
    2358:	e5e70001 	strb	r0, [r7, #1]!
    235c:	e598200c 	ldr	r2, [r8, #12]
    2360:	e2841001 	add	r1, r4, #1
    2364:	e19200b3 	ldrh	r0, [r2, r3]
    2368:	e3500000 	cmp	r0, #0
    236c:	0a000007 	beq	2390 <get_fileinfo+0x84>
    2370:	e1a04001 	mov	r4, r1
    2374:	e3a01000 	mov	r1, #0
    2378:	ebfffffe 	bl	0 <ff_convert>
    237c:	e3540041 	cmp	r4, #65	; 0x41
    2380:	13500000 	cmpne	r0, #0
    2384:	e1a03084 	lsl	r3, r4, #1
    2388:	1afffff2 	bne	2358 <get_fileinfo+0x4c>
    238c:	e3a04000 	mov	r4, #0
    2390:	e3a03000 	mov	r3, #0
    2394:	e0854004 	add	r4, r5, r4
    2398:	e5c43016 	strb	r3, [r4, #22]
    239c:	e5d54016 	ldrb	r4, [r5, #22]
    23a0:	e596101c 	ldr	r1, [r6, #28]
    23a4:	e3a0c000 	mov	ip, #0
    23a8:	e3a0802e 	mov	r8, #46	; 0x2e
    23ac:	e2413001 	sub	r3, r1, #1
    23b0:	e281600a 	add	r6, r1, #10
    23b4:	ea000012 	b	2404 <get_fileinfo+0xf8>
    23b8:	e085e00c 	add	lr, r5, ip
    23bc:	e3540000 	cmp	r4, #0
    23c0:	e5ce2009 	strb	r2, [lr, #9]
    23c4:	1a00000a 	bne	23f4 <get_fileinfo+0xe8>
    23c8:	e2427041 	sub	r7, r2, #65	; 0x41
    23cc:	e3570019 	cmp	r7, #25
    23d0:	8a000006 	bhi	23f0 <get_fileinfo+0xe4>
    23d4:	e3530009 	cmp	r3, #9
    23d8:	33a03008 	movcc	r3, #8
    23dc:	23a03010 	movcs	r3, #16
    23e0:	e5d1700c 	ldrb	r7, [r1, #12]
    23e4:	e1170003 	tst	r7, r3
    23e8:	12822020 	addne	r2, r2, #32
    23ec:	16ef2072 	uxtbne	r2, r2
    23f0:	e5ce2016 	strb	r2, [lr, #22]
    23f4:	e28cc001 	add	ip, ip, #1
    23f8:	e1500006 	cmp	r0, r6
    23fc:	e1a03000 	mov	r3, r0
    2400:	0a00000f 	beq	2444 <get_fileinfo+0x138>
    2404:	e5d32001 	ldrb	r2, [r3, #1]
    2408:	e2830001 	add	r0, r3, #1
    240c:	e3520020 	cmp	r2, #32
    2410:	0afffff8 	beq	23f8 <get_fileinfo+0xec>
    2414:	e2833002 	add	r3, r3, #2
    2418:	e3520005 	cmp	r2, #5
    241c:	e0433001 	sub	r3, r3, r1
    2420:	03a020e5 	moveq	r2, #229	; 0xe5
    2424:	e3530009 	cmp	r3, #9
    2428:	1affffe2 	bne	23b8 <get_fileinfo+0xac>
    242c:	e085e00c 	add	lr, r5, ip
    2430:	e3540000 	cmp	r4, #0
    2434:	05ce8016 	strbeq	r8, [lr, #22]
    2438:	e5ce8009 	strb	r8, [lr, #9]
    243c:	e28cc001 	add	ip, ip, #1
    2440:	eaffffdc 	b	23b8 <get_fileinfo+0xac>
    2444:	e3540000 	cmp	r4, #0
    2448:	e085e00c 	add	lr, r5, ip
    244c:	1a000003 	bne	2460 <get_fileinfo+0x154>
    2450:	e5ce4016 	strb	r4, [lr, #22]
    2454:	e5d1300c 	ldrb	r3, [r1, #12]
    2458:	e3530000 	cmp	r3, #0
    245c:	01a0e005 	moveq	lr, r5
    2460:	e3a03000 	mov	r3, #0
    2464:	e5ce3009 	strb	r3, [lr, #9]
    2468:	e5d1300b 	ldrb	r3, [r1, #11]
    246c:	e5c53008 	strb	r3, [r5, #8]
    2470:	e1d101be 	ldrh	r0, [r1, #30]
    2474:	e5d1201d 	ldrb	r2, [r1, #29]
    2478:	e5d1301c 	ldrb	r3, [r1, #28]
    247c:	e1822400 	orr	r2, r2, r0, lsl #8
    2480:	e1833402 	orr	r3, r3, r2, lsl #8
    2484:	e5853000 	str	r3, [r5]
    2488:	e1d101b8 	ldrh	r0, [r1, #24]
    248c:	e5d12017 	ldrb	r2, [r1, #23]
    2490:	e5d13016 	ldrb	r3, [r1, #22]
    2494:	e1822400 	orr	r2, r2, r0, lsl #8
    2498:	e1833402 	orr	r3, r3, r2, lsl #8
    249c:	e1a02823 	lsr	r2, r3, #16
    24a0:	e1c530b6 	strh	r3, [r5, #6]
    24a4:	e1c520b4 	strh	r2, [r5, #4]
    24a8:	e8bd81f0 	pop	{r4, r5, r6, r7, r8, pc}

000024ac <f_mount>:
    24ac:	e92d4010 	push	{r4, lr}
    24b0:	e24dd010 	sub	sp, sp, #16
    24b4:	e58d0004 	str	r0, [sp, #4]
    24b8:	e28d000c 	add	r0, sp, #12
    24bc:	e58d1000 	str	r1, [sp]
    24c0:	e1a04002 	mov	r4, r2
    24c4:	e58d100c 	str	r1, [sp, #12]
    24c8:	ebfff721 	bl	154 <get_ldnumber>
    24cc:	e3500000 	cmp	r0, #0
    24d0:	b3a0000b 	movlt	r0, #11
    24d4:	ba000013 	blt	2528 <f_mount+0x7c>
    24d8:	e59f1064 	ldr	r1, [pc, #100]	; 2544 <f_mount+0x98>
    24dc:	e1a03100 	lsl	r3, r0, #2
    24e0:	e0812003 	add	r2, r1, r3
    24e4:	e5922004 	ldr	r2, [r2, #4]
    24e8:	e3520000 	cmp	r2, #0
    24ec:	13a00000 	movne	r0, #0
    24f0:	15c20000 	strbne	r0, [r2]
    24f4:	e59dc004 	ldr	ip, [sp, #4]
    24f8:	e35c0000 	cmp	ip, #0
    24fc:	0a00000b 	beq	2530 <f_mount+0x84>
    2500:	e3a02000 	mov	r2, #0
    2504:	e0813003 	add	r3, r1, r3
    2508:	e3540001 	cmp	r4, #1
    250c:	e583c004 	str	ip, [r3, #4]
    2510:	e5cc2000 	strb	r2, [ip]
    2514:	11a00002 	movne	r0, r2
    2518:	1a000002 	bne	2528 <f_mount+0x7c>
    251c:	e28d1004 	add	r1, sp, #4
    2520:	e1a0000d 	mov	r0, sp
    2524:	ebfff803 	bl	538 <find_volume>
    2528:	e28dd010 	add	sp, sp, #16
    252c:	e8bd8010 	pop	{r4, pc}
    2530:	e1a0000c 	mov	r0, ip
    2534:	e0813003 	add	r3, r1, r3
    2538:	e583c004 	str	ip, [r3, #4]
    253c:	e28dd010 	add	sp, sp, #16
    2540:	e8bd8010 	pop	{r4, pc}
    2544:	00000000 	andeq	r0, r0, r0

00002548 <f_open>:
    2548:	e92d41f0 	push	{r4, r5, r6, r7, r8, lr}
    254c:	e2504000 	subs	r4, r0, #0
    2550:	e24dd040 	sub	sp, sp, #64	; 0x40
    2554:	e58d1004 	str	r1, [sp, #4]
    2558:	03a06009 	moveq	r6, #9
    255c:	0a000009 	beq	2588 <f_open+0x40>
    2560:	e202703f 	and	r7, r2, #63	; 0x3f
    2564:	e1a05002 	mov	r5, r2
    2568:	e28d1008 	add	r1, sp, #8
    256c:	e1a02007 	mov	r2, r7
    2570:	e28d0004 	add	r0, sp, #4
    2574:	ebfff7ef 	bl	538 <find_volume>
    2578:	e2506000 	subs	r6, r0, #0
    257c:	0a000004 	beq	2594 <f_open+0x4c>
    2580:	e3a03000 	mov	r3, #0
    2584:	e5843000 	str	r3, [r4]
    2588:	e1a00006 	mov	r0, r6
    258c:	e28dd040 	add	sp, sp, #64	; 0x40
    2590:	e8bd81f0 	pop	{r4, r5, r6, r7, r8, pc}
    2594:	e59d3008 	ldr	r3, [sp, #8]
    2598:	e28d000c 	add	r0, sp, #12
    259c:	e59d1004 	ldr	r1, [sp, #4]
    25a0:	e58d300c 	str	r3, [sp, #12]
    25a4:	ebfffcdc 	bl	191c <follow_path>
    25a8:	e3500000 	cmp	r0, #0
    25ac:	e205301c 	and	r3, r5, #28
    25b0:	1a00000b 	bne	25e4 <f_open+0x9c>
    25b4:	e1dd23d7 	ldrsb	r2, [sp, #55]	; 0x37
    25b8:	e3520000 	cmp	r2, #0
    25bc:	ba000052 	blt	270c <f_open+0x1c4>
    25c0:	e3530000 	cmp	r3, #0
    25c4:	e5dd3012 	ldrb	r3, [sp, #18]
    25c8:	0a00000b 	beq	25fc <f_open+0xb4>
    25cc:	e3130011 	tst	r3, #17
    25d0:	1a00004f 	bne	2714 <f_open+0x1cc>
    25d4:	e3150004 	tst	r5, #4
    25d8:	0a00009a 	beq	2848 <f_open+0x300>
    25dc:	e3a06008 	mov	r6, #8
    25e0:	eaffffe6 	b	2580 <f_open+0x38>
    25e4:	e3530000 	cmp	r3, #0
    25e8:	0a000001 	beq	25f4 <f_open+0xac>
    25ec:	e3500004 	cmp	r0, #4
    25f0:	0a00004b 	beq	2724 <f_open+0x1dc>
    25f4:	e1a06000 	mov	r6, r0
    25f8:	eaffffe0 	b	2580 <f_open+0x38>
    25fc:	e3130010 	tst	r3, #16
    2600:	1a000045 	bne	271c <f_open+0x1d4>
    2604:	e3150002 	tst	r5, #2
    2608:	0a000001 	beq	2614 <f_open+0xcc>
    260c:	e3130001 	tst	r3, #1
    2610:	1a00003f 	bne	2714 <f_open+0x1cc>
    2614:	e59dc008 	ldr	ip, [sp, #8]
    2618:	e3170008 	tst	r7, #8
    261c:	13877040 	orrne	r7, r7, #64	; 0x40
    2620:	e3a00000 	mov	r0, #0
    2624:	e59c3034 	ldr	r3, [ip, #52]	; 0x34
    2628:	e59d2028 	ldr	r2, [sp, #40]	; 0x28
    262c:	e5843020 	str	r3, [r4, #32]
    2630:	e5842024 	str	r2, [r4, #36]	; 0x24
    2634:	e5dc1000 	ldrb	r1, [ip]
    2638:	e5d2301b 	ldrb	r3, [r2, #27]
    263c:	e5d2e01a 	ldrb	lr, [r2, #26]
    2640:	e3510003 	cmp	r1, #3
    2644:	05d21015 	ldrbeq	r1, [r2, #21]
    2648:	e18ee403 	orr	lr, lr, r3, lsl #8
    264c:	05d23014 	ldrbeq	r3, [r2, #20]
    2650:	e2845028 	add	r5, r4, #40	; 0x28
    2654:	01833401 	orreq	r3, r3, r1, lsl #8
    2658:	018ee803 	orreq	lr, lr, r3, lsl #16
    265c:	e1a01000 	mov	r1, r0
    2660:	e1a03005 	mov	r3, r5
    2664:	e584e008 	str	lr, [r4, #8]
    2668:	e1d281be 	ldrh	r8, [r2, #30]
    266c:	e5d2e01d 	ldrb	lr, [r2, #29]
    2670:	e5d2201c 	ldrb	r2, [r2, #28]
    2674:	e18ee408 	orr	lr, lr, r8, lsl #8
    2678:	e182240e 	orr	r2, r2, lr, lsl #8
    267c:	e584200c 	str	r2, [r4, #12]
    2680:	e1dc20b6 	ldrh	r2, [ip, #6]
    2684:	e584c000 	str	ip, [r4]
    2688:	e1c420b4 	strh	r2, [r4, #4]
    268c:	e5c40011 	strb	r0, [r4, #17]
    2690:	e584001c 	str	r0, [r4, #28]
    2694:	e5840014 	str	r0, [r4, #20]
    2698:	e5c47010 	strb	r7, [r4, #16]
    269c:	e2842f8a 	add	r2, r4, #552	; 0x228
    26a0:	e4c31001 	strb	r1, [r3], #1
    26a4:	e1520003 	cmp	r2, r3
    26a8:	1afffffc 	bne	26a0 <f_open+0x158>
    26ac:	e3170020 	tst	r7, #32
    26b0:	0affffb4 	beq	2588 <f_open+0x40>
    26b4:	e594700c 	ldr	r7, [r4, #12]
    26b8:	e3570000 	cmp	r7, #0
    26bc:	0affffb1 	beq	2588 <f_open+0x40>
    26c0:	e1dc80ba 	ldrh	r8, [ip, #10]
    26c4:	e5941008 	ldr	r1, [r4, #8]
    26c8:	e1a08488 	lsl	r8, r8, #9
    26cc:	e1570008 	cmp	r7, r8
    26d0:	e5847014 	str	r7, [r4, #20]
    26d4:	8a000003 	bhi	26e8 <f_open+0x1a0>
    26d8:	ea00005e 	b	2858 <f_open+0x310>
    26dc:	e3700001 	cmn	r0, #1
    26e0:	11580007 	cmpne	r8, r7
    26e4:	2a000076 	bcs	28c4 <f_open+0x37c>
    26e8:	e5940000 	ldr	r0, [r4]
    26ec:	ebfff954 	bl	c44 <get_fat.isra.7>
    26f0:	e3500001 	cmp	r0, #1
    26f4:	e1a01000 	mov	r1, r0
    26f8:	e0477008 	sub	r7, r7, r8
    26fc:	8afffff6 	bhi	26dc <f_open+0x194>
    2700:	e5840018 	str	r0, [r4, #24]
    2704:	e3a06002 	mov	r6, #2
    2708:	eaffff9c 	b	2580 <f_open+0x38>
    270c:	e3a06006 	mov	r6, #6
    2710:	eaffff9a 	b	2580 <f_open+0x38>
    2714:	e3a06007 	mov	r6, #7
    2718:	eaffff98 	b	2580 <f_open+0x38>
    271c:	e3a06004 	mov	r6, #4
    2720:	eaffff96 	b	2580 <f_open+0x38>
    2724:	e28d000c 	add	r0, sp, #12
    2728:	ebfffdda 	bl	1e98 <dir_register>
    272c:	e3500000 	cmp	r0, #0
    2730:	e3877008 	orr	r7, r7, #8
    2734:	1affffae 	bne	25f4 <f_open+0xac>
    2738:	ebfffffe 	bl	0 <get_fattime>
    273c:	e3a0e020 	mov	lr, #32
    2740:	e59d3028 	ldr	r3, [sp, #40]	; 0x28
    2744:	e1a01420 	lsr	r1, r0, #8
    2748:	e1a02820 	lsr	r2, r0, #16
    274c:	e6efc070 	uxtb	ip, r0
    2750:	e6ef1071 	uxtb	r1, r1
    2754:	e6ef2072 	uxtb	r2, r2
    2758:	e1a00c20 	lsr	r0, r0, #24
    275c:	e5c3c00e 	strb	ip, [r3, #14]
    2760:	e5c32010 	strb	r2, [r3, #16]
    2764:	e5c3100f 	strb	r1, [r3, #15]
    2768:	e5c30011 	strb	r0, [r3, #17]
    276c:	e59d3028 	ldr	r3, [sp, #40]	; 0x28
    2770:	e5c3c016 	strb	ip, [r3, #22]
    2774:	e5c32018 	strb	r2, [r3, #24]
    2778:	e5c31017 	strb	r1, [r3, #23]
    277c:	e5c30019 	strb	r0, [r3, #25]
    2780:	e59d3028 	ldr	r3, [sp, #40]	; 0x28
    2784:	e59dc008 	ldr	ip, [sp, #8]
    2788:	e5c3e00b 	strb	lr, [r3, #11]
    278c:	e59d3028 	ldr	r3, [sp, #40]	; 0x28
    2790:	e5dc1000 	ldrb	r1, [ip]
    2794:	e5d3201b 	ldrb	r2, [r3, #27]
    2798:	e5d3801a 	ldrb	r8, [r3, #26]
    279c:	e3510003 	cmp	r1, #3
    27a0:	05d31015 	ldrbeq	r1, [r3, #21]
    27a4:	e1888402 	orr	r8, r8, r2, lsl #8
    27a8:	05d32014 	ldrbeq	r2, [r3, #20]
    27ac:	01822401 	orreq	r2, r2, r1, lsl #8
    27b0:	01888802 	orreq	r8, r8, r2, lsl #16
    27b4:	e3a02000 	mov	r2, #0
    27b8:	e5c3201a 	strb	r2, [r3, #26]
    27bc:	e5c3201b 	strb	r2, [r3, #27]
    27c0:	e5dc1000 	ldrb	r1, [ip]
    27c4:	e3510003 	cmp	r1, #3
    27c8:	05c32014 	strbeq	r2, [r3, #20]
    27cc:	05c32015 	strbeq	r2, [r3, #21]
    27d0:	e3a02000 	mov	r2, #0
    27d4:	e3a01001 	mov	r1, #1
    27d8:	e59d3028 	ldr	r3, [sp, #40]	; 0x28
    27dc:	e1580002 	cmp	r8, r2
    27e0:	e5c3201c 	strb	r2, [r3, #28]
    27e4:	e5c3201d 	strb	r2, [r3, #29]
    27e8:	e5c3201e 	strb	r2, [r3, #30]
    27ec:	e5c3201f 	strb	r2, [r3, #31]
    27f0:	e5cc1003 	strb	r1, [ip, #3]
    27f4:	0affff87 	beq	2618 <f_open+0xd0>
    27f8:	e28d000c 	add	r0, sp, #12
    27fc:	e1a01008 	mov	r1, r8
    2800:	e59c5034 	ldr	r5, [ip, #52]	; 0x34
    2804:	ebfffa0e 	bl	1044 <remove_chain>
    2808:	e3500000 	cmp	r0, #0
    280c:	1affff78 	bne	25f4 <f_open+0xac>
    2810:	e59dc008 	ldr	ip, [sp, #8]
    2814:	e2488001 	sub	r8, r8, #1
    2818:	e59c3034 	ldr	r3, [ip, #52]	; 0x34
    281c:	e1550003 	cmp	r5, r3
    2820:	058c8010 	streq	r8, [ip, #16]
    2824:	0affff7b 	beq	2618 <f_open+0xd0>
    2828:	e1a0000c 	mov	r0, ip
    282c:	e1a01005 	mov	r1, r5
    2830:	ebfff6f1 	bl	3fc <move_window.part.4>
    2834:	e59dc008 	ldr	ip, [sp, #8]
    2838:	e3500000 	cmp	r0, #0
    283c:	e58c8010 	str	r8, [ip, #16]
    2840:	0affff74 	beq	2618 <f_open+0xd0>
    2844:	eaffff6a 	b	25f4 <f_open+0xac>
    2848:	e3150008 	tst	r5, #8
    284c:	1affffb9 	bne	2738 <f_open+0x1f0>
    2850:	e59dc008 	ldr	ip, [sp, #8]
    2854:	eaffff71 	b	2620 <f_open+0xd8>
    2858:	e5841018 	str	r1, [r4, #24]
    285c:	e1a03b87 	lsl	r3, r7, #23
    2860:	e1a03ba3 	lsr	r3, r3, #23
    2864:	e3530000 	cmp	r3, #0
    2868:	0affff46 	beq	2588 <f_open+0x40>
    286c:	e59d0008 	ldr	r0, [sp, #8]
    2870:	e241c002 	sub	ip, r1, #2
    2874:	e590301c 	ldr	r3, [r0, #28]
    2878:	e2433002 	sub	r3, r3, #2
    287c:	e15c0003 	cmp	ip, r3
    2880:	2a000003 	bcs	2894 <f_open+0x34c>
    2884:	e1d030ba 	ldrh	r3, [r0, #10]
    2888:	e5902030 	ldr	r2, [r0, #48]	; 0x30
    288c:	e0312c93 	mlas	r1, r3, ip, r2
    2890:	1a000001 	bne	289c <f_open+0x354>
    2894:	e3a06002 	mov	r6, #2
    2898:	eaffff38 	b	2580 <f_open+0x38>
    289c:	e08124a7 	add	r2, r1, r7, lsr #9
    28a0:	e584201c 	str	r2, [r4, #28]
    28a4:	e5d00001 	ldrb	r0, [r0, #1]
    28a8:	e1a01005 	mov	r1, r5
    28ac:	e3a03001 	mov	r3, #1
    28b0:	ebfffffe 	bl	0 <disk_read>
    28b4:	e3500000 	cmp	r0, #0
    28b8:	13a06001 	movne	r6, #1
    28bc:	1affff2f 	bne	2580 <f_open+0x38>
    28c0:	eaffff30 	b	2588 <f_open+0x40>
    28c4:	e3700001 	cmn	r0, #1
    28c8:	03a03001 	moveq	r3, #1
    28cc:	e5840018 	str	r0, [r4, #24]
    28d0:	13a03000 	movne	r3, #0
    28d4:	01a06003 	moveq	r6, r3
    28d8:	0affff28 	beq	2580 <f_open+0x38>
    28dc:	eaffffde 	b	285c <f_open+0x314>

000028e0 <f_read>:
    28e0:	e92d4ff0 	push	{r4, r5, r6, r7, r8, r9, sl, fp, lr}
    28e4:	e1a09003 	mov	r9, r3
    28e8:	e3a03000 	mov	r3, #0
    28ec:	e24dd01c 	sub	sp, sp, #28
    28f0:	e1a0a001 	mov	sl, r1
    28f4:	e5893000 	str	r3, [r9]
    28f8:	e28d1014 	add	r1, sp, #20
    28fc:	e1a04002 	mov	r4, r2
    2900:	e1a06000 	mov	r6, r0
    2904:	ebfff631 	bl	1d0 <validate>
    2908:	e2508000 	subs	r8, r0, #0
    290c:	1a000047 	bne	2a30 <f_read+0x150>
    2910:	e5d68011 	ldrb	r8, [r6, #17]
    2914:	e3580000 	cmp	r8, #0
    2918:	1a000044 	bne	2a30 <f_read+0x150>
    291c:	e5d63010 	ldrb	r3, [r6, #16]
    2920:	e2133001 	ands	r3, r3, #1
    2924:	e58d3004 	str	r3, [sp, #4]
    2928:	03a08007 	moveq	r8, #7
    292c:	0a00003f 	beq	2a30 <f_read+0x150>
    2930:	e5963014 	ldr	r3, [r6, #20]
    2934:	e596500c 	ldr	r5, [r6, #12]
    2938:	e0455003 	sub	r5, r5, r3
    293c:	e1550004 	cmp	r5, r4
    2940:	21a05004 	movcs	r5, r4
    2944:	e3550000 	cmp	r5, #0
    2948:	0a000038 	beq	2a30 <f_read+0x150>
    294c:	e2862028 	add	r2, r6, #40	; 0x28
    2950:	e58d8008 	str	r8, [sp, #8]
    2954:	e1a08002 	mov	r8, r2
    2958:	e59fb1d8 	ldr	fp, [pc, #472]	; 2b38 <f_read+0x258>
    295c:	e013100b 	ands	r1, r3, fp
    2960:	1a000021 	bne	29ec <f_read+0x10c>
    2964:	e59d1014 	ldr	r1, [sp, #20]
    2968:	e1d120ba 	ldrh	r2, [r1, #10]
    296c:	e2422001 	sub	r2, r2, #1
    2970:	e01224a3 	ands	r2, r2, r3, lsr #9
    2974:	0a000030 	beq	2a3c <f_read+0x15c>
    2978:	e5960018 	ldr	r0, [r6, #24]
    297c:	e591301c 	ldr	r3, [r1, #28]
    2980:	e240c002 	sub	ip, r0, #2
    2984:	e2433002 	sub	r3, r3, #2
    2988:	e15c0003 	cmp	ip, r3
    298c:	2a000034 	bcs	2a64 <f_read+0x184>
    2990:	e1d130ba 	ldrh	r3, [r1, #10]
    2994:	e5917030 	ldr	r7, [r1, #48]	; 0x30
    2998:	e0307c93 	mlas	r0, r3, ip, r7
    299c:	0a000030 	beq	2a64 <f_read+0x184>
    29a0:	e155000b 	cmp	r5, fp
    29a4:	e0827000 	add	r7, r2, r0
    29a8:	8a000032 	bhi	2a78 <f_read+0x198>
    29ac:	e596201c 	ldr	r2, [r6, #28]
    29b0:	e1520007 	cmp	r2, r7
    29b4:	0a000009 	beq	29e0 <f_read+0x100>
    29b8:	e1d631d0 	ldrsb	r3, [r6, #16]
    29bc:	e5d10001 	ldrb	r0, [r1, #1]
    29c0:	e3530000 	cmp	r3, #0
    29c4:	ba000041 	blt	2ad0 <f_read+0x1f0>
    29c8:	e3a03001 	mov	r3, #1
    29cc:	e1a02007 	mov	r2, r7
    29d0:	e1a01008 	mov	r1, r8
    29d4:	ebfffffe 	bl	0 <disk_read>
    29d8:	e3500000 	cmp	r0, #0
    29dc:	1a000040 	bne	2ae4 <f_read+0x204>
    29e0:	e5961014 	ldr	r1, [r6, #20]
    29e4:	e586701c 	str	r7, [r6, #28]
    29e8:	e001100b 	and	r1, r1, fp
    29ec:	e2614c02 	rsb	r4, r1, #512	; 0x200
    29f0:	e1540005 	cmp	r4, r5
    29f4:	21a04005 	movcs	r4, r5
    29f8:	e0881001 	add	r1, r8, r1
    29fc:	e1a02004 	mov	r2, r4
    2a00:	e1a0000a 	mov	r0, sl
    2a04:	ebfff60c 	bl	23c <mem_cpy.part.0>
    2a08:	e5963014 	ldr	r3, [r6, #20]
    2a0c:	e5992000 	ldr	r2, [r9]
    2a10:	e0843003 	add	r3, r4, r3
    2a14:	e0822004 	add	r2, r2, r4
    2a18:	e0555004 	subs	r5, r5, r4
    2a1c:	e5863014 	str	r3, [r6, #20]
    2a20:	e08aa004 	add	sl, sl, r4
    2a24:	e5892000 	str	r2, [r9]
    2a28:	1affffcb 	bne	295c <f_read+0x7c>
    2a2c:	e59d8008 	ldr	r8, [sp, #8]
    2a30:	e1a00008 	mov	r0, r8
    2a34:	e28dd01c 	add	sp, sp, #28
    2a38:	e8bd8ff0 	pop	{r4, r5, r6, r7, r8, r9, sl, fp, pc}
    2a3c:	e3530000 	cmp	r3, #0
    2a40:	1a00001c 	bne	2ab8 <f_read+0x1d8>
    2a44:	e5960008 	ldr	r0, [r6, #8]
    2a48:	e3500001 	cmp	r0, #1
    2a4c:	9a000004 	bls	2a64 <f_read+0x184>
    2a50:	e3700001 	cmn	r0, #1
    2a54:	0a000022 	beq	2ae4 <f_read+0x204>
    2a58:	e59d1014 	ldr	r1, [sp, #20]
    2a5c:	e5860018 	str	r0, [r6, #24]
    2a60:	eaffffc5 	b	297c <f_read+0x9c>
    2a64:	e3a08002 	mov	r8, #2
    2a68:	e1a00008 	mov	r0, r8
    2a6c:	e5c68011 	strb	r8, [r6, #17]
    2a70:	e28dd01c 	add	sp, sp, #28
    2a74:	e8bd8ff0 	pop	{r4, r5, r6, r7, r8, r9, sl, fp, pc}
    2a78:	e1a044a5 	lsr	r4, r5, #9
    2a7c:	e0820004 	add	r0, r2, r4
    2a80:	e1500003 	cmp	r0, r3
    2a84:	80434002 	subhi	r4, r3, r2
    2a88:	e5d10001 	ldrb	r0, [r1, #1]
    2a8c:	e1a03004 	mov	r3, r4
    2a90:	e1a02007 	mov	r2, r7
    2a94:	e1a0100a 	mov	r1, sl
    2a98:	ebfffffe 	bl	0 <disk_read>
    2a9c:	e3500000 	cmp	r0, #0
    2aa0:	1a00000f 	bne	2ae4 <f_read+0x204>
    2aa4:	e1d631d0 	ldrsb	r3, [r6, #16]
    2aa8:	e3530000 	cmp	r3, #0
    2aac:	ba000018 	blt	2b14 <f_read+0x234>
    2ab0:	e1a04484 	lsl	r4, r4, #9
    2ab4:	eaffffd3 	b	2a08 <f_read+0x128>
    2ab8:	e5961018 	ldr	r1, [r6, #24]
    2abc:	e5960000 	ldr	r0, [r6]
    2ac0:	e58d200c 	str	r2, [sp, #12]
    2ac4:	ebfff85e 	bl	c44 <get_fat.isra.7>
    2ac8:	e59d200c 	ldr	r2, [sp, #12]
    2acc:	eaffffdd 	b	2a48 <f_read+0x168>
    2ad0:	e3a03001 	mov	r3, #1
    2ad4:	e1a01008 	mov	r1, r8
    2ad8:	ebfffffe 	bl	0 <disk_write>
    2adc:	e3500000 	cmp	r0, #0
    2ae0:	0a000005 	beq	2afc <f_read+0x21c>
    2ae4:	e59d8004 	ldr	r8, [sp, #4]
    2ae8:	e3a03001 	mov	r3, #1
    2aec:	e1a00008 	mov	r0, r8
    2af0:	e5c63011 	strb	r3, [r6, #17]
    2af4:	e28dd01c 	add	sp, sp, #28
    2af8:	e8bd8ff0 	pop	{r4, r5, r6, r7, r8, r9, sl, fp, pc}
    2afc:	e5d63010 	ldrb	r3, [r6, #16]
    2b00:	e59d2014 	ldr	r2, [sp, #20]
    2b04:	e203307f 	and	r3, r3, #127	; 0x7f
    2b08:	e5c63010 	strb	r3, [r6, #16]
    2b0c:	e5d20001 	ldrb	r0, [r2, #1]
    2b10:	eaffffac 	b	29c8 <f_read+0xe8>
    2b14:	e596001c 	ldr	r0, [r6, #28]
    2b18:	e0400007 	sub	r0, r0, r7
    2b1c:	e1500004 	cmp	r0, r4
    2b20:	2affffe2 	bcs	2ab0 <f_read+0x1d0>
    2b24:	e08a0480 	add	r0, sl, r0, lsl #9
    2b28:	e3a02c02 	mov	r2, #512	; 0x200
    2b2c:	e1a01008 	mov	r1, r8
    2b30:	ebfff5c1 	bl	23c <mem_cpy.part.0>
    2b34:	eaffffdd 	b	2ab0 <f_read+0x1d0>
    2b38:	000001ff 	strdeq	r0, [r0], -pc	; <UNPREDICTABLE>

00002b3c <f_write>:
    2b3c:	e92d4ff0 	push	{r4, r5, r6, r7, r8, r9, sl, fp, lr}
    2b40:	e1a0a003 	mov	sl, r3
    2b44:	e3a03000 	mov	r3, #0
    2b48:	e24dd014 	sub	sp, sp, #20
    2b4c:	e1a0b001 	mov	fp, r1
    2b50:	e58a3000 	str	r3, [sl]
    2b54:	e28d100c 	add	r1, sp, #12
    2b58:	e1a06002 	mov	r6, r2
    2b5c:	e1a04000 	mov	r4, r0
    2b60:	ebfff59a 	bl	1d0 <validate>
    2b64:	e2508000 	subs	r8, r0, #0
    2b68:	1a00004f 	bne	2cac <f_write+0x170>
    2b6c:	e5d48011 	ldrb	r8, [r4, #17]
    2b70:	e3580000 	cmp	r8, #0
    2b74:	1a00004c 	bne	2cac <f_write+0x170>
    2b78:	e5d42010 	ldrb	r2, [r4, #16]
    2b7c:	e3120002 	tst	r2, #2
    2b80:	03a08007 	moveq	r8, #7
    2b84:	0a000048 	beq	2cac <f_write+0x170>
    2b88:	e5943014 	ldr	r3, [r4, #20]
    2b8c:	e1730006 	cmn	r3, r6
    2b90:	21e06003 	mvncs	r6, r3
    2b94:	e3560000 	cmp	r6, #0
    2b98:	0a000041 	beq	2ca4 <f_write+0x168>
    2b9c:	e2842028 	add	r2, r4, #40	; 0x28
    2ba0:	e58d8004 	str	r8, [sp, #4]
    2ba4:	e1a08002 	mov	r8, r2
    2ba8:	e59f2240 	ldr	r2, [pc, #576]	; 2df0 <f_write+0x2b4>
    2bac:	e0130002 	ands	r0, r3, r2
    2bb0:	1a00004a 	bne	2ce0 <f_write+0x1a4>
    2bb4:	e59d200c 	ldr	r2, [sp, #12]
    2bb8:	e1d290ba 	ldrh	r9, [r2, #10]
    2bbc:	e2499001 	sub	r9, r9, #1
    2bc0:	e01994a3 	ands	r9, r9, r3, lsr #9
    2bc4:	1a00000d 	bne	2c00 <f_write+0xc4>
    2bc8:	e3530000 	cmp	r3, #0
    2bcc:	1a00002d 	bne	2c88 <f_write+0x14c>
    2bd0:	e5940008 	ldr	r0, [r4, #8]
    2bd4:	e3500000 	cmp	r0, #0
    2bd8:	0a00006f 	beq	2d9c <f_write+0x260>
    2bdc:	e3500001 	cmp	r0, #1
    2be0:	0a000057 	beq	2d44 <f_write+0x208>
    2be4:	e3700001 	cmn	r0, #1
    2be8:	0a000066 	beq	2d88 <f_write+0x24c>
    2bec:	e5943008 	ldr	r3, [r4, #8]
    2bf0:	e59d200c 	ldr	r2, [sp, #12]
    2bf4:	e3530000 	cmp	r3, #0
    2bf8:	e5840018 	str	r0, [r4, #24]
    2bfc:	05840008 	streq	r0, [r4, #8]
    2c00:	e1d431d0 	ldrsb	r3, [r4, #16]
    2c04:	e3530000 	cmp	r3, #0
    2c08:	ba000052 	blt	2d58 <f_write+0x21c>
    2c0c:	e5947018 	ldr	r7, [r4, #24]
    2c10:	e592301c 	ldr	r3, [r2, #28]
    2c14:	e2470002 	sub	r0, r7, #2
    2c18:	e2433002 	sub	r3, r3, #2
    2c1c:	e1500003 	cmp	r0, r3
    2c20:	2a000047 	bcs	2d44 <f_write+0x208>
    2c24:	e1d230ba 	ldrh	r3, [r2, #10]
    2c28:	e5921030 	ldr	r1, [r2, #48]	; 0x30
    2c2c:	e0371093 	mlas	r7, r3, r0, r1
    2c30:	0a000043 	beq	2d44 <f_write+0x208>
    2c34:	e59f11b4 	ldr	r1, [pc, #436]	; 2df0 <f_write+0x2b4>
    2c38:	e0897007 	add	r7, r9, r7
    2c3c:	e1560001 	cmp	r6, r1
    2c40:	9a00001c 	bls	2cb8 <f_write+0x17c>
    2c44:	e1a054a6 	lsr	r5, r6, #9
    2c48:	e0891005 	add	r1, r9, r5
    2c4c:	e1510003 	cmp	r1, r3
    2c50:	80435009 	subhi	r5, r3, r9
    2c54:	e5d20001 	ldrb	r0, [r2, #1]
    2c58:	e1a03005 	mov	r3, r5
    2c5c:	e1a02007 	mov	r2, r7
    2c60:	e1a0100b 	mov	r1, fp
    2c64:	ebfffffe 	bl	0 <disk_write>
    2c68:	e3500000 	cmp	r0, #0
    2c6c:	1a000045 	bne	2d88 <f_write+0x24c>
    2c70:	e594101c 	ldr	r1, [r4, #28]
    2c74:	e0411007 	sub	r1, r1, r7
    2c78:	e1510005 	cmp	r1, r5
    2c7c:	3a000053 	bcc	2dd0 <f_write+0x294>
    2c80:	e1a05485 	lsl	r5, r5, #9
    2c84:	ea000020 	b	2d0c <f_write+0x1d0>
    2c88:	e5941018 	ldr	r1, [r4, #24]
    2c8c:	e1a00004 	mov	r0, r4
    2c90:	ebfff892 	bl	ee0 <create_chain>
    2c94:	e3500000 	cmp	r0, #0
    2c98:	1affffcf 	bne	2bdc <f_write+0xa0>
    2c9c:	e59d8004 	ldr	r8, [sp, #4]
    2ca0:	e5d42010 	ldrb	r2, [r4, #16]
    2ca4:	e3822040 	orr	r2, r2, #64	; 0x40
    2ca8:	e5c42010 	strb	r2, [r4, #16]
    2cac:	e1a00008 	mov	r0, r8
    2cb0:	e28dd014 	add	sp, sp, #20
    2cb4:	e8bd8ff0 	pop	{r4, r5, r6, r7, r8, r9, sl, fp, pc}
    2cb8:	e594301c 	ldr	r3, [r4, #28]
    2cbc:	e5940014 	ldr	r0, [r4, #20]
    2cc0:	e1530007 	cmp	r3, r7
    2cc4:	0a000002 	beq	2cd4 <f_write+0x198>
    2cc8:	e594300c 	ldr	r3, [r4, #12]
    2ccc:	e1530000 	cmp	r3, r0
    2cd0:	8a000035 	bhi	2dac <f_write+0x270>
    2cd4:	e1a00b80 	lsl	r0, r0, #23
    2cd8:	e584701c 	str	r7, [r4, #28]
    2cdc:	e1a00ba0 	lsr	r0, r0, #23
    2ce0:	e2605c02 	rsb	r5, r0, #512	; 0x200
    2ce4:	e1550006 	cmp	r5, r6
    2ce8:	21a05006 	movcs	r5, r6
    2cec:	e0880000 	add	r0, r8, r0
    2cf0:	e1a02005 	mov	r2, r5
    2cf4:	e1a0100b 	mov	r1, fp
    2cf8:	ebfff54f 	bl	23c <mem_cpy.part.0>
    2cfc:	e5d43010 	ldrb	r3, [r4, #16]
    2d00:	e1e03c83 	mvn	r3, r3, lsl #25
    2d04:	e1e03ca3 	mvn	r3, r3, lsr #25
    2d08:	e5c43010 	strb	r3, [r4, #16]
    2d0c:	e5943014 	ldr	r3, [r4, #20]
    2d10:	e594200c 	ldr	r2, [r4, #12]
    2d14:	e0853003 	add	r3, r5, r3
    2d18:	e1520003 	cmp	r2, r3
    2d1c:	31a02003 	movcc	r2, r3
    2d20:	e59a1000 	ldr	r1, [sl]
    2d24:	e0566005 	subs	r6, r6, r5
    2d28:	e0811005 	add	r1, r1, r5
    2d2c:	e5843014 	str	r3, [r4, #20]
    2d30:	e584200c 	str	r2, [r4, #12]
    2d34:	e08bb005 	add	fp, fp, r5
    2d38:	e58a1000 	str	r1, [sl]
    2d3c:	1affff99 	bne	2ba8 <f_write+0x6c>
    2d40:	eaffffd5 	b	2c9c <f_write+0x160>
    2d44:	e3a08002 	mov	r8, #2
    2d48:	e1a00008 	mov	r0, r8
    2d4c:	e5c48011 	strb	r8, [r4, #17]
    2d50:	e28dd014 	add	sp, sp, #20
    2d54:	e8bd8ff0 	pop	{r4, r5, r6, r7, r8, r9, sl, fp, pc}
    2d58:	e5d20001 	ldrb	r0, [r2, #1]
    2d5c:	e3a03001 	mov	r3, #1
    2d60:	e594201c 	ldr	r2, [r4, #28]
    2d64:	e1a01008 	mov	r1, r8
    2d68:	ebfffffe 	bl	0 <disk_write>
    2d6c:	e3500000 	cmp	r0, #0
    2d70:	1a000004 	bne	2d88 <f_write+0x24c>
    2d74:	e5d43010 	ldrb	r3, [r4, #16]
    2d78:	e59d200c 	ldr	r2, [sp, #12]
    2d7c:	e203307f 	and	r3, r3, #127	; 0x7f
    2d80:	e5c43010 	strb	r3, [r4, #16]
    2d84:	eaffffa0 	b	2c0c <f_write+0xd0>
    2d88:	e3a08001 	mov	r8, #1
    2d8c:	e1a00008 	mov	r0, r8
    2d90:	e5c48011 	strb	r8, [r4, #17]
    2d94:	e28dd014 	add	sp, sp, #20
    2d98:	e8bd8ff0 	pop	{r4, r5, r6, r7, r8, r9, sl, fp, pc}
    2d9c:	e1a01009 	mov	r1, r9
    2da0:	e1a00004 	mov	r0, r4
    2da4:	ebfff84d 	bl	ee0 <create_chain>
    2da8:	eaffffb9 	b	2c94 <f_write+0x158>
    2dac:	e5d20001 	ldrb	r0, [r2, #1]
    2db0:	e3a03001 	mov	r3, #1
    2db4:	e1a02007 	mov	r2, r7
    2db8:	e1a01008 	mov	r1, r8
    2dbc:	ebfffffe 	bl	0 <disk_read>
    2dc0:	e3500000 	cmp	r0, #0
    2dc4:	1affffef 	bne	2d88 <f_write+0x24c>
    2dc8:	e5940014 	ldr	r0, [r4, #20]
    2dcc:	eaffffc0 	b	2cd4 <f_write+0x198>
    2dd0:	e08b1481 	add	r1, fp, r1, lsl #9
    2dd4:	e3a02c02 	mov	r2, #512	; 0x200
    2dd8:	e1a00008 	mov	r0, r8
    2ddc:	ebfff516 	bl	23c <mem_cpy.part.0>
    2de0:	e5d43010 	ldrb	r3, [r4, #16]
    2de4:	e203307f 	and	r3, r3, #127	; 0x7f
    2de8:	e5c43010 	strb	r3, [r4, #16]
    2dec:	eaffffa3 	b	2c80 <f_write+0x144>
    2df0:	000001ff 	strdeq	r0, [r0], -pc	; <UNPREDICTABLE>

00002df4 <putc_bfd>:
    2df4:	e92d4070 	push	{r4, r5, r6, lr}
    2df8:	e351000a 	cmp	r1, #10
    2dfc:	e24dd008 	sub	sp, sp, #8
    2e00:	e1a06001 	mov	r6, r1
    2e04:	e1a04000 	mov	r4, r0
    2e08:	0a000016 	beq	2e68 <putc_bfd+0x74>
    2e0c:	e5943004 	ldr	r3, [r4, #4]
    2e10:	e3530000 	cmp	r3, #0
    2e14:	ba000008 	blt	2e3c <putc_bfd+0x48>
    2e18:	e2835001 	add	r5, r3, #1
    2e1c:	e355003c 	cmp	r5, #60	; 0x3c
    2e20:	e0843003 	add	r3, r4, r3
    2e24:	e5c3600c 	strb	r6, [r3, #12]
    2e28:	ca000005 	bgt	2e44 <putc_bfd+0x50>
    2e2c:	e5943008 	ldr	r3, [r4, #8]
    2e30:	e5845004 	str	r5, [r4, #4]
    2e34:	e2833001 	add	r3, r3, #1
    2e38:	e5843008 	str	r3, [r4, #8]
    2e3c:	e28dd008 	add	sp, sp, #8
    2e40:	e8bd8070 	pop	{r4, r5, r6, pc}
    2e44:	e1a01004 	mov	r1, r4
    2e48:	e28d3004 	add	r3, sp, #4
    2e4c:	e1a02005 	mov	r2, r5
    2e50:	e491000c 	ldr	r0, [r1], #12
    2e54:	ebfffffe 	bl	2b3c <f_write>
    2e58:	e59d3004 	ldr	r3, [sp, #4]
    2e5c:	e0535005 	subs	r5, r3, r5
    2e60:	13e05000 	mvnne	r5, #0
    2e64:	eafffff0 	b	2e2c <putc_bfd+0x38>
    2e68:	e3a0100d 	mov	r1, #13
    2e6c:	ebffffe0 	bl	2df4 <putc_bfd>
    2e70:	eaffffe5 	b	2e0c <putc_bfd+0x18>

00002e74 <putc_flush>:
    2e74:	e5902004 	ldr	r2, [r0, #4]
    2e78:	e3520000 	cmp	r2, #0
    2e7c:	ba000012 	blt	2ecc <putc_flush+0x58>
    2e80:	e1a01000 	mov	r1, r0
    2e84:	e92d4010 	push	{r4, lr}
    2e88:	e24dd008 	sub	sp, sp, #8
    2e8c:	e1a04000 	mov	r4, r0
    2e90:	e28d3004 	add	r3, sp, #4
    2e94:	e491000c 	ldr	r0, [r1], #12
    2e98:	ebfffffe 	bl	2b3c <f_write>
    2e9c:	e3500000 	cmp	r0, #0
    2ea0:	1a000006 	bne	2ec0 <putc_flush+0x4c>
    2ea4:	e5942004 	ldr	r2, [r4, #4]
    2ea8:	e59d3004 	ldr	r3, [sp, #4]
    2eac:	e1520003 	cmp	r2, r3
    2eb0:	1a000002 	bne	2ec0 <putc_flush+0x4c>
    2eb4:	e5940008 	ldr	r0, [r4, #8]
    2eb8:	e28dd008 	add	sp, sp, #8
    2ebc:	e8bd8010 	pop	{r4, pc}
    2ec0:	e3e00000 	mvn	r0, #0
    2ec4:	e28dd008 	add	sp, sp, #8
    2ec8:	e8bd8010 	pop	{r4, pc}
    2ecc:	e3e00000 	mvn	r0, #0
    2ed0:	e12fff1e 	bx	lr

00002ed4 <f_sync>:
    2ed4:	e92d4030 	push	{r4, r5, lr}
    2ed8:	e24dd00c 	sub	sp, sp, #12
    2edc:	e28d1004 	add	r1, sp, #4
    2ee0:	e1a04000 	mov	r4, r0
    2ee4:	ebfff4b9 	bl	1d0 <validate>
    2ee8:	e3500000 	cmp	r0, #0
    2eec:	1a000039 	bne	2fd8 <f_sync+0x104>
    2ef0:	e5d43010 	ldrb	r3, [r4, #16]
    2ef4:	e2130040 	ands	r0, r3, #64	; 0x40
    2ef8:	0a000036 	beq	2fd8 <f_sync+0x104>
    2efc:	e3130080 	tst	r3, #128	; 0x80
    2f00:	1a000036 	bne	2fe0 <f_sync+0x10c>
    2f04:	ebfffffe 	bl	0 <get_fattime>
    2f08:	e59dc004 	ldr	ip, [sp, #4]
    2f0c:	e5941020 	ldr	r1, [r4, #32]
    2f10:	e59c3034 	ldr	r3, [ip, #52]	; 0x34
    2f14:	e1a05000 	mov	r5, r0
    2f18:	e1510003 	cmp	r1, r3
    2f1c:	0a000004 	beq	2f34 <f_sync+0x60>
    2f20:	e1a0000c 	mov	r0, ip
    2f24:	ebfff534 	bl	3fc <move_window.part.4>
    2f28:	e3500000 	cmp	r0, #0
    2f2c:	1a000029 	bne	2fd8 <f_sync+0x104>
    2f30:	e59dc004 	ldr	ip, [sp, #4]
    2f34:	e5943024 	ldr	r3, [r4, #36]	; 0x24
    2f38:	e3a0e001 	mov	lr, #1
    2f3c:	e5d3200b 	ldrb	r2, [r3, #11]
    2f40:	e3822020 	orr	r2, r2, #32
    2f44:	e5c3200b 	strb	r2, [r3, #11]
    2f48:	e5942008 	ldr	r2, [r4, #8]
    2f4c:	e5940000 	ldr	r0, [r4]
    2f50:	e6ff1072 	uxth	r1, r2
    2f54:	e1a01421 	lsr	r1, r1, #8
    2f58:	e5c3201a 	strb	r2, [r3, #26]
    2f5c:	e5c3101b 	strb	r1, [r3, #27]
    2f60:	e5d01000 	ldrb	r1, [r0]
    2f64:	e3510003 	cmp	r1, #3
    2f68:	01a02822 	lsreq	r2, r2, #16
    2f6c:	01a01422 	lsreq	r1, r2, #8
    2f70:	05c31015 	strbeq	r1, [r3, #21]
    2f74:	e3a01000 	mov	r1, #0
    2f78:	05c32014 	strbeq	r2, [r3, #20]
    2f7c:	e594200c 	ldr	r2, [r4, #12]
    2f80:	e5c35016 	strb	r5, [r3, #22]
    2f84:	e1a00422 	lsr	r0, r2, #8
    2f88:	e5c3201c 	strb	r2, [r3, #28]
    2f8c:	e5c3001d 	strb	r0, [r3, #29]
    2f90:	e1a00822 	lsr	r0, r2, #16
    2f94:	e1a02c22 	lsr	r2, r2, #24
    2f98:	e5c3001e 	strb	r0, [r3, #30]
    2f9c:	e5c3201f 	strb	r2, [r3, #31]
    2fa0:	e1a00425 	lsr	r0, r5, #8
    2fa4:	e1a02825 	lsr	r2, r5, #16
    2fa8:	e1a05c25 	lsr	r5, r5, #24
    2fac:	e5c30017 	strb	r0, [r3, #23]
    2fb0:	e5c31012 	strb	r1, [r3, #18]
    2fb4:	e5c31013 	strb	r1, [r3, #19]
    2fb8:	e5c32018 	strb	r2, [r3, #24]
    2fbc:	e5c35019 	strb	r5, [r3, #25]
    2fc0:	e1a0000c 	mov	r0, ip
    2fc4:	e5cce003 	strb	lr, [ip, #3]
    2fc8:	ebfff4c4 	bl	2e0 <sync_fs>
    2fcc:	e5d43010 	ldrb	r3, [r4, #16]
    2fd0:	e3c33040 	bic	r3, r3, #64	; 0x40
    2fd4:	e5c43010 	strb	r3, [r4, #16]
    2fd8:	e28dd00c 	add	sp, sp, #12
    2fdc:	e8bd8030 	pop	{r4, r5, pc}
    2fe0:	e59d2004 	ldr	r2, [sp, #4]
    2fe4:	e3a03001 	mov	r3, #1
    2fe8:	e5d20001 	ldrb	r0, [r2, #1]
    2fec:	e2841028 	add	r1, r4, #40	; 0x28
    2ff0:	e594201c 	ldr	r2, [r4, #28]
    2ff4:	ebfffffe 	bl	0 <disk_write>
    2ff8:	e3500000 	cmp	r0, #0
    2ffc:	13a00001 	movne	r0, #1
    3000:	1afffff4 	bne	2fd8 <f_sync+0x104>
    3004:	e5d43010 	ldrb	r3, [r4, #16]
    3008:	e203307f 	and	r3, r3, #127	; 0x7f
    300c:	e5c43010 	strb	r3, [r4, #16]
    3010:	eaffffbb 	b	2f04 <f_sync+0x30>

00003014 <f_close>:
    3014:	e92d4010 	push	{r4, lr}
    3018:	e24dd008 	sub	sp, sp, #8
    301c:	e1a04000 	mov	r4, r0
    3020:	ebfffffe 	bl	2ed4 <f_sync>
    3024:	e3500000 	cmp	r0, #0
    3028:	0a000001 	beq	3034 <f_close+0x20>
    302c:	e28dd008 	add	sp, sp, #8
    3030:	e8bd8010 	pop	{r4, pc}
    3034:	e28d1004 	add	r1, sp, #4
    3038:	e1a00004 	mov	r0, r4
    303c:	ebfff463 	bl	1d0 <validate>
    3040:	e3500000 	cmp	r0, #0
    3044:	05840000 	streq	r0, [r4]
    3048:	e28dd008 	add	sp, sp, #8
    304c:	e8bd8010 	pop	{r4, pc}

00003050 <f_chdrive>:
    3050:	e52de004 	push	{lr}		; (str lr, [sp, #-4]!)
    3054:	e24dd00c 	sub	sp, sp, #12
    3058:	e58d0004 	str	r0, [sp, #4]
    305c:	e28d0004 	add	r0, sp, #4
    3060:	ebfff43b 	bl	154 <get_ldnumber>
    3064:	e2503000 	subs	r3, r0, #0
    3068:	a3a00000 	movge	r0, #0
    306c:	b3a0000b 	movlt	r0, #11
    3070:	a59f2008 	ldrge	r2, [pc, #8]	; 3080 <f_chdrive+0x30>
    3074:	a5c23000 	strbge	r3, [r2]
    3078:	e28dd00c 	add	sp, sp, #12
    307c:	e49df004 	pop	{pc}		; (ldr pc, [sp], #4)
    3080:	00000000 	andeq	r0, r0, r0

00003084 <f_chdir>:
    3084:	e52de004 	push	{lr}		; (str lr, [sp, #-4]!)
    3088:	e24dd044 	sub	sp, sp, #68	; 0x44
    308c:	e58d0004 	str	r0, [sp, #4]
    3090:	e3a02000 	mov	r2, #0
    3094:	e28d1008 	add	r1, sp, #8
    3098:	e28d0004 	add	r0, sp, #4
    309c:	ebfff525 	bl	538 <find_volume>
    30a0:	e3500000 	cmp	r0, #0
    30a4:	0a000001 	beq	30b0 <f_chdir+0x2c>
    30a8:	e28dd044 	add	sp, sp, #68	; 0x44
    30ac:	e49df004 	pop	{pc}		; (ldr pc, [sp], #4)
    30b0:	e99d000a 	ldmib	sp, {r1, r3}
    30b4:	e28d000c 	add	r0, sp, #12
    30b8:	e58d300c 	str	r3, [sp, #12]
    30bc:	ebfffa16 	bl	191c <follow_path>
    30c0:	e3500000 	cmp	r0, #0
    30c4:	1a000013 	bne	3118 <f_chdir+0x94>
    30c8:	e1dd33d7 	ldrsb	r3, [sp, #55]	; 0x37
    30cc:	e3530000 	cmp	r3, #0
    30d0:	ba000014 	blt	3128 <f_chdir+0xa4>
    30d4:	e5dd3012 	ldrb	r3, [sp, #18]
    30d8:	e3130010 	tst	r3, #16
    30dc:	03a00005 	moveq	r0, #5
    30e0:	0afffff0 	beq	30a8 <f_chdir+0x24>
    30e4:	e59d1008 	ldr	r1, [sp, #8]
    30e8:	e59d2028 	ldr	r2, [sp, #40]	; 0x28
    30ec:	e5d1e000 	ldrb	lr, [r1]
    30f0:	e5d2c01b 	ldrb	ip, [r2, #27]
    30f4:	e5d2301a 	ldrb	r3, [r2, #26]
    30f8:	e35e0003 	cmp	lr, #3
    30fc:	e183340c 	orr	r3, r3, ip, lsl #8
    3100:	05d2c015 	ldrbeq	ip, [r2, #21]
    3104:	05d22014 	ldrbeq	r2, [r2, #20]
    3108:	0182240c 	orreq	r2, r2, ip, lsl #8
    310c:	01833802 	orreq	r3, r3, r2, lsl #16
    3110:	e5813018 	str	r3, [r1, #24]
    3114:	eaffffe3 	b	30a8 <f_chdir+0x24>
    3118:	e3500004 	cmp	r0, #4
    311c:	03a00005 	moveq	r0, #5
    3120:	e28dd044 	add	sp, sp, #68	; 0x44
    3124:	e49df004 	pop	{pc}		; (ldr pc, [sp], #4)
    3128:	e59d3008 	ldr	r3, [sp, #8]
    312c:	e59d2014 	ldr	r2, [sp, #20]
    3130:	e5832018 	str	r2, [r3, #24]
    3134:	eaffffdb 	b	30a8 <f_chdir+0x24>

00003138 <f_getcwd>:
    3138:	e3a02000 	mov	r2, #0
    313c:	e92d40f0 	push	{r4, r5, r6, r7, lr}
    3140:	e24dd09c 	sub	sp, sp, #156	; 0x9c
    3144:	e58d0004 	str	r0, [sp, #4]
    3148:	e1a06001 	mov	r6, r1
    314c:	e5c02000 	strb	r2, [r0]
    3150:	e28d1008 	add	r1, sp, #8
    3154:	e28d0004 	add	r0, sp, #4
    3158:	ebfff4f6 	bl	538 <find_volume>
    315c:	e2505000 	subs	r5, r0, #0
    3160:	1a000042 	bne	3270 <f_getcwd+0x138>
    3164:	e59d3008 	ldr	r3, [sp, #8]
    3168:	e5937018 	ldr	r7, [r3, #24]
    316c:	e58d300c 	str	r3, [sp, #12]
    3170:	e3570000 	cmp	r7, #0
    3174:	e58d7014 	str	r7, [sp, #20]
    3178:	0a00007c 	beq	3370 <f_getcwd+0x238>
    317c:	e1a04006 	mov	r4, r6
    3180:	e3a01020 	mov	r1, #32
    3184:	e28d000c 	add	r0, sp, #12
    3188:	ebfff709 	bl	db4 <dir_sdi>
    318c:	e3500000 	cmp	r0, #0
    3190:	1a000073 	bne	3364 <f_getcwd+0x22c>
    3194:	e59d0008 	ldr	r0, [sp, #8]
    3198:	e59d1024 	ldr	r1, [sp, #36]	; 0x24
    319c:	e5903034 	ldr	r3, [r0, #52]	; 0x34
    31a0:	e1510003 	cmp	r1, r3
    31a4:	0a000003 	beq	31b8 <f_getcwd+0x80>
    31a8:	ebfff493 	bl	3fc <move_window.part.4>
    31ac:	e3500000 	cmp	r0, #0
    31b0:	1a00006b 	bne	3364 <f_getcwd+0x22c>
    31b4:	e59d0008 	ldr	r0, [sp, #8]
    31b8:	e59d2028 	ldr	r2, [sp, #40]	; 0x28
    31bc:	e5d00000 	ldrb	r0, [r0]
    31c0:	e5d2101b 	ldrb	r1, [r2, #27]
    31c4:	e5d2301a 	ldrb	r3, [r2, #26]
    31c8:	e3500003 	cmp	r0, #3
    31cc:	e1833401 	orr	r3, r3, r1, lsl #8
    31d0:	05d21015 	ldrbeq	r1, [r2, #21]
    31d4:	05d22014 	ldrbeq	r2, [r2, #20]
    31d8:	e28d000c 	add	r0, sp, #12
    31dc:	01822401 	orreq	r2, r2, r1, lsl #8
    31e0:	01833802 	orreq	r3, r3, r2, lsl #16
    31e4:	e3a01000 	mov	r1, #0
    31e8:	e58d3014 	str	r3, [sp, #20]
    31ec:	ebfff6f0 	bl	db4 <dir_sdi>
    31f0:	e3500000 	cmp	r0, #0
    31f4:	0a000012 	beq	3244 <f_getcwd+0x10c>
    31f8:	ea000059 	b	3364 <f_getcwd+0x22c>
    31fc:	e59d3008 	ldr	r3, [sp, #8]
    3200:	e59d2028 	ldr	r2, [sp, #40]	; 0x28
    3204:	e5d30000 	ldrb	r0, [r3]
    3208:	e5d2101b 	ldrb	r1, [r2, #27]
    320c:	e5d2301a 	ldrb	r3, [r2, #26]
    3210:	e3500003 	cmp	r0, #3
    3214:	e1833401 	orr	r3, r3, r1, lsl #8
    3218:	05d21015 	ldrbeq	r1, [r2, #21]
    321c:	05d22014 	ldrbeq	r2, [r2, #20]
    3220:	01822401 	orreq	r2, r2, r1, lsl #8
    3224:	01833802 	orreq	r3, r3, r2, lsl #16
    3228:	e1530007 	cmp	r3, r7
    322c:	0a000012 	beq	327c <f_getcwd+0x144>
    3230:	e3a01000 	mov	r1, #0
    3234:	e28d000c 	add	r0, sp, #12
    3238:	ebfff7c1 	bl	1144 <dir_next>
    323c:	e3500000 	cmp	r0, #0
    3240:	1a000004 	bne	3258 <f_getcwd+0x120>
    3244:	e3a01000 	mov	r1, #0
    3248:	e28d000c 	add	r0, sp, #12
    324c:	ebfff85f 	bl	13d0 <dir_read>
    3250:	e3500000 	cmp	r0, #0
    3254:	0affffe8 	beq	31fc <f_getcwd+0xc4>
    3258:	e3500004 	cmp	r0, #4
    325c:	11a05000 	movne	r5, r0
    3260:	03a05002 	moveq	r5, #2
    3264:	e59d3004 	ldr	r3, [sp, #4]
    3268:	e3a02000 	mov	r2, #0
    326c:	e5c32000 	strb	r2, [r3]
    3270:	e1a00005 	mov	r0, r5
    3274:	e28dd09c 	add	sp, sp, #156	; 0x9c
    3278:	e8bd80f0 	pop	{r4, r5, r6, r7, pc}
    327c:	e28d1040 	add	r1, sp, #64	; 0x40
    3280:	e28d000c 	add	r0, sp, #12
    3284:	ebfffc20 	bl	230c <get_fileinfo>
    3288:	e5dd3056 	ldrb	r3, [sp, #86]	; 0x56
    328c:	e3530000 	cmp	r3, #0
    3290:	0a00002f 	beq	3354 <f_getcwd+0x21c>
    3294:	e28d1057 	add	r1, sp, #87	; 0x57
    3298:	e3a03000 	mov	r3, #0
    329c:	ea000000 	b	32a4 <f_getcwd+0x16c>
    32a0:	e1a03002 	mov	r3, r2
    32a4:	e4d10001 	ldrb	r0, [r1], #1
    32a8:	e2832001 	add	r2, r3, #1
    32ac:	e3500000 	cmp	r0, #0
    32b0:	1afffffa 	bne	32a0 <f_getcwd+0x168>
    32b4:	e2831004 	add	r1, r3, #4
    32b8:	e1510004 	cmp	r1, r4
    32bc:	8a000036 	bhi	339c <f_getcwd+0x264>
    32c0:	e3520000 	cmp	r2, #0
    32c4:	0a000024 	beq	335c <f_getcwd+0x224>
    32c8:	e2833017 	add	r3, r3, #23
    32cc:	e28d1040 	add	r1, sp, #64	; 0x40
    32d0:	e0813003 	add	r3, r1, r3
    32d4:	e0442002 	sub	r2, r4, r2
    32d8:	e2444001 	sub	r4, r4, #1
    32dc:	e5730001 	ldrb	r0, [r3, #-1]!
    32e0:	e59d1004 	ldr	r1, [sp, #4]
    32e4:	e1540002 	cmp	r4, r2
    32e8:	e7c10004 	strb	r0, [r1, r4]
    32ec:	1afffff9 	bne	32d8 <f_getcwd+0x1a0>
    32f0:	e3a0102f 	mov	r1, #47	; 0x2f
    32f4:	e59d3004 	ldr	r3, [sp, #4]
    32f8:	e2424001 	sub	r4, r2, #1
    32fc:	e7c31004 	strb	r1, [r3, r4]
    3300:	e59d7014 	ldr	r7, [sp, #20]
    3304:	e3570000 	cmp	r7, #0
    3308:	1affff9c 	bne	3180 <f_getcwd+0x48>
    330c:	e3a0103a 	mov	r1, #58	; 0x3a
    3310:	e59f3090 	ldr	r3, [pc, #144]	; 33a8 <f_getcwd+0x270>
    3314:	e59d2004 	ldr	r2, [sp, #4]
    3318:	e5d33000 	ldrb	r3, [r3]
    331c:	e1560004 	cmp	r6, r4
    3320:	e2833030 	add	r3, r3, #48	; 0x30
    3324:	e5c23000 	strb	r3, [r2]
    3328:	e5c21001 	strb	r1, [r2, #1]
    332c:	12823002 	addne	r3, r2, #2
    3330:	0a000015 	beq	338c <f_getcwd+0x254>
    3334:	e59d2004 	ldr	r2, [sp, #4]
    3338:	e7d22004 	ldrb	r2, [r2, r4]
    333c:	e2844001 	add	r4, r4, #1
    3340:	e1560004 	cmp	r6, r4
    3344:	e4c32001 	strb	r2, [r3], #1
    3348:	8afffff9 	bhi	3334 <f_getcwd+0x1fc>
    334c:	e3a05000 	mov	r5, #0
    3350:	eaffffc4 	b	3268 <f_getcwd+0x130>
    3354:	e3540002 	cmp	r4, #2
    3358:	9a00000f 	bls	339c <f_getcwd+0x264>
    335c:	e1a02004 	mov	r2, r4
    3360:	eaffffe2 	b	32f0 <f_getcwd+0x1b8>
    3364:	e1a05000 	mov	r5, r0
    3368:	e59d3004 	ldr	r3, [sp, #4]
    336c:	eaffffbd 	b	3268 <f_getcwd+0x130>
    3370:	e3a0103a 	mov	r1, #58	; 0x3a
    3374:	e59f302c 	ldr	r3, [pc, #44]	; 33a8 <f_getcwd+0x270>
    3378:	e59d2004 	ldr	r2, [sp, #4]
    337c:	e5d33000 	ldrb	r3, [r3]
    3380:	e5c21001 	strb	r1, [r2, #1]
    3384:	e2833030 	add	r3, r3, #48	; 0x30
    3388:	e5c23000 	strb	r3, [r2]
    338c:	e3a0102f 	mov	r1, #47	; 0x2f
    3390:	e2823003 	add	r3, r2, #3
    3394:	e5c21002 	strb	r1, [r2, #2]
    3398:	eaffffb2 	b	3268 <f_getcwd+0x130>
    339c:	e59d3004 	ldr	r3, [sp, #4]
    33a0:	e3a05011 	mov	r5, #17
    33a4:	eaffffaf 	b	3268 <f_getcwd+0x130>
    33a8:	00000000 	andeq	r0, r0, r0

000033ac <f_lseek>:
    33ac:	e92d43f0 	push	{r4, r5, r6, r7, r8, r9, lr}
    33b0:	e24dd00c 	sub	sp, sp, #12
    33b4:	e1a06001 	mov	r6, r1
    33b8:	e28d1004 	add	r1, sp, #4
    33bc:	e1a04000 	mov	r4, r0
    33c0:	ebfff382 	bl	1d0 <validate>
    33c4:	e2508000 	subs	r8, r0, #0
    33c8:	1a00003d 	bne	34c4 <f_lseek+0x118>
    33cc:	e5d48011 	ldrb	r8, [r4, #17]
    33d0:	e3580000 	cmp	r8, #0
    33d4:	1a00003a 	bne	34c4 <f_lseek+0x118>
    33d8:	e594300c 	ldr	r3, [r4, #12]
    33dc:	e1530006 	cmp	r3, r6
    33e0:	2a000002 	bcs	33f0 <f_lseek+0x44>
    33e4:	e5d42010 	ldrb	r2, [r4, #16]
    33e8:	e3120002 	tst	r2, #2
    33ec:	01a06003 	moveq	r6, r3
    33f0:	e3a03000 	mov	r3, #0
    33f4:	e1560003 	cmp	r6, r3
    33f8:	e5940014 	ldr	r0, [r4, #20]
    33fc:	e5843014 	str	r3, [r4, #20]
    3400:	0a00002f 	beq	34c4 <f_lseek+0x118>
    3404:	e59d3004 	ldr	r3, [sp, #4]
    3408:	e3500000 	cmp	r0, #0
    340c:	e1d370ba 	ldrh	r7, [r3, #10]
    3410:	e1a07487 	lsl	r7, r7, #9
    3414:	0a00002d 	beq	34d0 <f_lseek+0x124>
    3418:	e2405001 	sub	r5, r0, #1
    341c:	e1a01007 	mov	r1, r7
    3420:	e2460001 	sub	r0, r6, #1
    3424:	ebfffffe 	bl	0 <__aeabi_uidiv>
    3428:	e1a01007 	mov	r1, r7
    342c:	e1a09000 	mov	r9, r0
    3430:	e1a00005 	mov	r0, r5
    3434:	ebfffffe 	bl	0 <__aeabi_uidiv>
    3438:	e1590000 	cmp	r9, r0
    343c:	3a000023 	bcc	34d0 <f_lseek+0x124>
    3440:	e2670000 	rsb	r0, r7, #0
    3444:	e0000005 	and	r0, r0, r5
    3448:	e5840014 	str	r0, [r4, #20]
    344c:	e0466000 	sub	r6, r6, r0
    3450:	e5945018 	ldr	r5, [r4, #24]
    3454:	ea000022 	b	34e4 <f_lseek+0x138>
    3458:	e1a05003 	mov	r5, r3
    345c:	e594300c 	ldr	r3, [r4, #12]
    3460:	e1a02b80 	lsl	r2, r0, #23
    3464:	e1530000 	cmp	r3, r0
    3468:	35d43010 	ldrbcc	r3, [r4, #16]
    346c:	e1a02ba2 	lsr	r2, r2, #23
    3470:	33833040 	orrcc	r3, r3, #64	; 0x40
    3474:	3584000c 	strcc	r0, [r4, #12]
    3478:	35c43010 	strbcc	r3, [r4, #16]
    347c:	e3520000 	cmp	r2, #0
    3480:	0a00000f 	beq	34c4 <f_lseek+0x118>
    3484:	e594201c 	ldr	r2, [r4, #28]
    3488:	e1520005 	cmp	r2, r5
    348c:	0a00000c 	beq	34c4 <f_lseek+0x118>
    3490:	e1d411d0 	ldrsb	r1, [r4, #16]
    3494:	e59d3004 	ldr	r3, [sp, #4]
    3498:	e3510000 	cmp	r1, #0
    349c:	e5d30001 	ldrb	r0, [r3, #1]
    34a0:	e2846028 	add	r6, r4, #40	; 0x28
    34a4:	ba000039 	blt	3590 <f_lseek+0x1e4>
    34a8:	e1a01006 	mov	r1, r6
    34ac:	e3a03001 	mov	r3, #1
    34b0:	e1a02005 	mov	r2, r5
    34b4:	ebfffffe 	bl	0 <disk_read>
    34b8:	e2508000 	subs	r8, r0, #0
    34bc:	1a000038 	bne	35a4 <f_lseek+0x1f8>
    34c0:	e584501c 	str	r5, [r4, #28]
    34c4:	e1a00008 	mov	r0, r8
    34c8:	e28dd00c 	add	sp, sp, #12
    34cc:	e8bd83f0 	pop	{r4, r5, r6, r7, r8, r9, pc}
    34d0:	e5945008 	ldr	r5, [r4, #8]
    34d4:	e3550000 	cmp	r5, #0
    34d8:	13a00000 	movne	r0, #0
    34dc:	0a000020 	beq	3564 <f_lseek+0x1b8>
    34e0:	e5845018 	str	r5, [r4, #24]
    34e4:	e3550000 	cmp	r5, #0
    34e8:	0affffdb 	beq	345c <f_lseek+0xb0>
    34ec:	e1560007 	cmp	r6, r7
    34f0:	8a000010 	bhi	3538 <f_lseek+0x18c>
    34f4:	ea00002f 	b	35b8 <f_lseek+0x20c>
    34f8:	e1a00004 	mov	r0, r4
    34fc:	ebfff677 	bl	ee0 <create_chain>
    3500:	e2505000 	subs	r5, r0, #0
    3504:	0a000045 	beq	3620 <f_lseek+0x274>
    3508:	e3750001 	cmn	r5, #1
    350c:	0a000024 	beq	35a4 <f_lseek+0x1f8>
    3510:	e3550001 	cmp	r5, #1
    3514:	9a000038 	bls	35fc <f_lseek+0x250>
    3518:	e59d3004 	ldr	r3, [sp, #4]
    351c:	e593301c 	ldr	r3, [r3, #28]
    3520:	e1530005 	cmp	r3, r5
    3524:	9a000034 	bls	35fc <f_lseek+0x250>
    3528:	e1570006 	cmp	r7, r6
    352c:	e5845018 	str	r5, [r4, #24]
    3530:	e5940014 	ldr	r0, [r4, #20]
    3534:	2a00001f 	bcs	35b8 <f_lseek+0x20c>
    3538:	e5d43010 	ldrb	r3, [r4, #16]
    353c:	e0870000 	add	r0, r7, r0
    3540:	e3130002 	tst	r3, #2
    3544:	e1a01005 	mov	r1, r5
    3548:	e5840014 	str	r0, [r4, #20]
    354c:	e0466007 	sub	r6, r6, r7
    3550:	1affffe8 	bne	34f8 <f_lseek+0x14c>
    3554:	e5940000 	ldr	r0, [r4]
    3558:	ebfff5b9 	bl	c44 <get_fat.isra.7>
    355c:	e1a05000 	mov	r5, r0
    3560:	eaffffe8 	b	3508 <f_lseek+0x15c>
    3564:	e1a01005 	mov	r1, r5
    3568:	e1a00004 	mov	r0, r4
    356c:	ebfff65b 	bl	ee0 <create_chain>
    3570:	e3500001 	cmp	r0, #1
    3574:	e1a05000 	mov	r5, r0
    3578:	0a00001f 	beq	35fc <f_lseek+0x250>
    357c:	e3700001 	cmn	r0, #1
    3580:	0a000007 	beq	35a4 <f_lseek+0x1f8>
    3584:	e5840008 	str	r0, [r4, #8]
    3588:	e5940014 	ldr	r0, [r4, #20]
    358c:	eaffffd3 	b	34e0 <f_lseek+0x134>
    3590:	e3a03001 	mov	r3, #1
    3594:	e1a01006 	mov	r1, r6
    3598:	ebfffffe 	bl	0 <disk_write>
    359c:	e3500000 	cmp	r0, #0
    35a0:	0a000018 	beq	3608 <f_lseek+0x25c>
    35a4:	e3a08001 	mov	r8, #1
    35a8:	e1a00008 	mov	r0, r8
    35ac:	e5c48011 	strb	r8, [r4, #17]
    35b0:	e28dd00c 	add	sp, sp, #12
    35b4:	e8bd83f0 	pop	{r4, r5, r6, r7, r8, r9, pc}
    35b8:	e1a03b86 	lsl	r3, r6, #23
    35bc:	e1a03ba3 	lsr	r3, r3, #23
    35c0:	e0800006 	add	r0, r0, r6
    35c4:	e3530000 	cmp	r3, #0
    35c8:	e5840014 	str	r0, [r4, #20]
    35cc:	0affffa1 	beq	3458 <f_lseek+0xac>
    35d0:	e59d2004 	ldr	r2, [sp, #4]
    35d4:	e2451002 	sub	r1, r5, #2
    35d8:	e592301c 	ldr	r3, [r2, #28]
    35dc:	e2433002 	sub	r3, r3, #2
    35e0:	e1510003 	cmp	r1, r3
    35e4:	2a000004 	bcs	35fc <f_lseek+0x250>
    35e8:	e1d230ba 	ldrh	r3, [r2, #10]
    35ec:	e5922030 	ldr	r2, [r2, #48]	; 0x30
    35f0:	e0352193 	mlas	r5, r3, r1, r2
    35f4:	108554a6 	addne	r5, r5, r6, lsr #9
    35f8:	1affff97 	bne	345c <f_lseek+0xb0>
    35fc:	e3a08002 	mov	r8, #2
    3600:	e5c48011 	strb	r8, [r4, #17]
    3604:	eaffffae 	b	34c4 <f_lseek+0x118>
    3608:	e5d43010 	ldrb	r3, [r4, #16]
    360c:	e59d2004 	ldr	r2, [sp, #4]
    3610:	e203307f 	and	r3, r3, #127	; 0x7f
    3614:	e5c43010 	strb	r3, [r4, #16]
    3618:	e5d20001 	ldrb	r0, [r2, #1]
    361c:	eaffffa1 	b	34a8 <f_lseek+0xfc>
    3620:	e5940014 	ldr	r0, [r4, #20]
    3624:	eaffff8c 	b	345c <f_lseek+0xb0>

00003628 <f_opendir>:
    3628:	e92d4010 	push	{r4, lr}
    362c:	e2504000 	subs	r4, r0, #0
    3630:	e24dd010 	sub	sp, sp, #16
    3634:	e58d1004 	str	r1, [sp, #4]
    3638:	03a00009 	moveq	r0, #9
    363c:	0a000007 	beq	3660 <f_opendir+0x38>
    3640:	e3a02000 	mov	r2, #0
    3644:	e28d100c 	add	r1, sp, #12
    3648:	e28d0004 	add	r0, sp, #4
    364c:	ebfff3b9 	bl	538 <find_volume>
    3650:	e3500000 	cmp	r0, #0
    3654:	0a000003 	beq	3668 <f_opendir+0x40>
    3658:	e3a03000 	mov	r3, #0
    365c:	e5843000 	str	r3, [r4]
    3660:	e28dd010 	add	sp, sp, #16
    3664:	e8bd8010 	pop	{r4, pc}
    3668:	e59d300c 	ldr	r3, [sp, #12]
    366c:	e59d1004 	ldr	r1, [sp, #4]
    3670:	e5843000 	str	r3, [r4]
    3674:	e1a00004 	mov	r0, r4
    3678:	ebfff8a7 	bl	191c <follow_path>
    367c:	e3500000 	cmp	r0, #0
    3680:	1a00001d 	bne	36fc <f_opendir+0xd4>
    3684:	e1d432db 	ldrsb	r3, [r4, #43]	; 0x2b
    3688:	e3530000 	cmp	r3, #0
    368c:	b59d200c 	ldrlt	r2, [sp, #12]
    3690:	ba00000e 	blt	36d0 <f_opendir+0xa8>
    3694:	e5d43006 	ldrb	r3, [r4, #6]
    3698:	e3130010 	tst	r3, #16
    369c:	0a000018 	beq	3704 <f_opendir+0xdc>
    36a0:	e59d200c 	ldr	r2, [sp, #12]
    36a4:	e594101c 	ldr	r1, [r4, #28]
    36a8:	e5d2c000 	ldrb	ip, [r2]
    36ac:	e5d1001b 	ldrb	r0, [r1, #27]
    36b0:	e5d1301a 	ldrb	r3, [r1, #26]
    36b4:	e35c0003 	cmp	ip, #3
    36b8:	e1833400 	orr	r3, r3, r0, lsl #8
    36bc:	05d10015 	ldrbeq	r0, [r1, #21]
    36c0:	05d11014 	ldrbeq	r1, [r1, #20]
    36c4:	01811400 	orreq	r1, r1, r0, lsl #8
    36c8:	01833801 	orreq	r3, r3, r1, lsl #16
    36cc:	e5843008 	str	r3, [r4, #8]
    36d0:	e1d230b6 	ldrh	r3, [r2, #6]
    36d4:	e3a01000 	mov	r1, #0
    36d8:	e1c430b4 	strh	r3, [r4, #4]
    36dc:	e1a00004 	mov	r0, r4
    36e0:	ebfff5b3 	bl	db4 <dir_sdi>
    36e4:	e3500004 	cmp	r0, #4
    36e8:	0a000005 	beq	3704 <f_opendir+0xdc>
    36ec:	e3500000 	cmp	r0, #0
    36f0:	1affffd8 	bne	3658 <f_opendir+0x30>
    36f4:	e28dd010 	add	sp, sp, #16
    36f8:	e8bd8010 	pop	{r4, pc}
    36fc:	e3500004 	cmp	r0, #4
    3700:	1affffd4 	bne	3658 <f_opendir+0x30>
    3704:	e3a00005 	mov	r0, #5
    3708:	eaffffd2 	b	3658 <f_opendir+0x30>

0000370c <f_closedir>:
    370c:	e92d4010 	push	{r4, lr}
    3710:	e24dd008 	sub	sp, sp, #8
    3714:	e28d1004 	add	r1, sp, #4
    3718:	e1a04000 	mov	r4, r0
    371c:	ebfff2ab 	bl	1d0 <validate>
    3720:	e3500000 	cmp	r0, #0
    3724:	05840000 	streq	r0, [r4]
    3728:	e28dd008 	add	sp, sp, #8
    372c:	e8bd8010 	pop	{r4, pc}

00003730 <f_readdir>:
    3730:	e92d4070 	push	{r4, r5, r6, lr}
    3734:	e24dd008 	sub	sp, sp, #8
    3738:	e1a06001 	mov	r6, r1
    373c:	e28d1004 	add	r1, sp, #4
    3740:	e1a05000 	mov	r5, r0
    3744:	ebfff2a1 	bl	1d0 <validate>
    3748:	e2504000 	subs	r4, r0, #0
    374c:	1a000006 	bne	376c <f_readdir+0x3c>
    3750:	e3560000 	cmp	r6, #0
    3754:	e1a01004 	mov	r1, r4
    3758:	e1a00005 	mov	r0, r5
    375c:	0a000005 	beq	3778 <f_readdir+0x48>
    3760:	ebfff71a 	bl	13d0 <dir_read>
    3764:	e2504000 	subs	r4, r0, #0
    3768:	0a000007 	beq	378c <f_readdir+0x5c>
    376c:	e1a00004 	mov	r0, r4
    3770:	e28dd008 	add	sp, sp, #8
    3774:	e8bd8070 	pop	{r4, r5, r6, pc}
    3778:	ebfff58d 	bl	db4 <dir_sdi>
    377c:	e1a04000 	mov	r4, r0
    3780:	e1a00004 	mov	r0, r4
    3784:	e28dd008 	add	sp, sp, #8
    3788:	e8bd8070 	pop	{r4, r5, r6, pc}
    378c:	e1a01006 	mov	r1, r6
    3790:	e1a00005 	mov	r0, r5
    3794:	ebfffadc 	bl	230c <get_fileinfo>
    3798:	e1a01004 	mov	r1, r4
    379c:	e1a00005 	mov	r0, r5
    37a0:	ebfff667 	bl	1144 <dir_next>
    37a4:	e1a04000 	mov	r4, r0
    37a8:	e1a00004 	mov	r0, r4
    37ac:	e28dd008 	add	sp, sp, #8
    37b0:	e8bd8070 	pop	{r4, r5, r6, pc}

000037b4 <f_findnext>:
    37b4:	e92d4ff8 	push	{r3, r4, r5, r6, r7, r8, r9, sl, fp, lr}
    37b8:	e16f8f11 	clz	r8, r1
    37bc:	e1a06001 	mov	r6, r1
    37c0:	e1a07000 	mov	r7, r0
    37c4:	e1a082a8 	lsr	r8, r8, #5
    37c8:	e2819016 	add	r9, r1, #22
    37cc:	e281a009 	add	sl, r1, #9
    37d0:	ea000006 	b	37f0 <f_findnext+0x3c>
    37d4:	e1a0000b 	mov	r0, fp
    37d8:	e1a03004 	mov	r3, r4
    37dc:	e1a02004 	mov	r2, r4
    37e0:	e1a0100a 	mov	r1, sl
    37e4:	ebfff205 	bl	0 <pattern_matching>
    37e8:	e3500000 	cmp	r0, #0
    37ec:	1a000014 	bne	3844 <f_findnext+0x90>
    37f0:	e1a01006 	mov	r1, r6
    37f4:	e1a00007 	mov	r0, r7
    37f8:	ebfffffe 	bl	3730 <f_readdir>
    37fc:	e3500000 	cmp	r0, #0
    3800:	01a05008 	moveq	r5, r8
    3804:	13a05001 	movne	r5, #1
    3808:	e3550000 	cmp	r5, #0
    380c:	18bd8ff8 	popne	{r3, r4, r5, r6, r7, r8, r9, sl, fp, pc}
    3810:	e5d60016 	ldrb	r0, [r6, #22]
    3814:	e3500000 	cmp	r0, #0
    3818:	08bd8ff8 	popeq	{r3, r4, r5, r6, r7, r8, r9, sl, fp, pc}
    381c:	e597b030 	ldr	fp, [r7, #48]	; 0x30
    3820:	e1a03005 	mov	r3, r5
    3824:	e1a0000b 	mov	r0, fp
    3828:	e1a02005 	mov	r2, r5
    382c:	e1a01009 	mov	r1, r9
    3830:	ebfff1f2 	bl	0 <pattern_matching>
    3834:	e2504000 	subs	r4, r0, #0
    3838:	0affffe5 	beq	37d4 <f_findnext+0x20>
    383c:	e1a00005 	mov	r0, r5
    3840:	e8bd8ff8 	pop	{r3, r4, r5, r6, r7, r8, r9, sl, fp, pc}
    3844:	e1a00004 	mov	r0, r4
    3848:	e8bd8ff8 	pop	{r3, r4, r5, r6, r7, r8, r9, sl, fp, pc}

0000384c <f_findfirst>:
    384c:	e92d4070 	push	{r4, r5, r6, lr}
    3850:	e1a05001 	mov	r5, r1
    3854:	e5803030 	str	r3, [r0, #48]	; 0x30
    3858:	e1a01002 	mov	r1, r2
    385c:	e1a04000 	mov	r4, r0
    3860:	ebfffffe 	bl	3628 <f_opendir>
    3864:	e3500000 	cmp	r0, #0
    3868:	18bd8070 	popne	{r4, r5, r6, pc}
    386c:	e1a01005 	mov	r1, r5
    3870:	e1a00004 	mov	r0, r4
    3874:	e8bd4070 	pop	{r4, r5, r6, lr}
    3878:	eafffffe 	b	37b4 <f_findnext>

0000387c <f_stat>:
    387c:	e92d4030 	push	{r4, r5, lr}
    3880:	e24dd044 	sub	sp, sp, #68	; 0x44
    3884:	e58d0004 	str	r0, [sp, #4]
    3888:	e1a05001 	mov	r5, r1
    388c:	e3a02000 	mov	r2, #0
    3890:	e28d100c 	add	r1, sp, #12
    3894:	e28d0004 	add	r0, sp, #4
    3898:	ebfff326 	bl	538 <find_volume>
    389c:	e2504000 	subs	r4, r0, #0
    38a0:	0a000002 	beq	38b0 <f_stat+0x34>
    38a4:	e1a00004 	mov	r0, r4
    38a8:	e28dd044 	add	sp, sp, #68	; 0x44
    38ac:	e8bd8030 	pop	{r4, r5, pc}
    38b0:	e59d1004 	ldr	r1, [sp, #4]
    38b4:	e28d000c 	add	r0, sp, #12
    38b8:	ebfff817 	bl	191c <follow_path>
    38bc:	e2504000 	subs	r4, r0, #0
    38c0:	1afffff7 	bne	38a4 <f_stat+0x28>
    38c4:	e1dd33d7 	ldrsb	r3, [sp, #55]	; 0x37
    38c8:	e3530000 	cmp	r3, #0
    38cc:	b3a04006 	movlt	r4, #6
    38d0:	bafffff3 	blt	38a4 <f_stat+0x28>
    38d4:	e3550000 	cmp	r5, #0
    38d8:	0afffff1 	beq	38a4 <f_stat+0x28>
    38dc:	e1a01005 	mov	r1, r5
    38e0:	e28d000c 	add	r0, sp, #12
    38e4:	ebfffa88 	bl	230c <get_fileinfo>
    38e8:	eaffffed 	b	38a4 <f_stat+0x28>

000038ec <f_getfree>:
    38ec:	e92d43f0 	push	{r4, r5, r6, r7, r8, r9, lr}
    38f0:	e24dd014 	sub	sp, sp, #20
    38f4:	e58d0004 	str	r0, [sp, #4]
    38f8:	e1a07001 	mov	r7, r1
    38fc:	e1a08002 	mov	r8, r2
    3900:	e28d100c 	add	r1, sp, #12
    3904:	e3a02000 	mov	r2, #0
    3908:	e28d0004 	add	r0, sp, #4
    390c:	ebfff309 	bl	538 <find_volume>
    3910:	e2506000 	subs	r6, r0, #0
    3914:	1a000036 	bne	39f4 <f_getfree+0x108>
    3918:	e59d400c 	ldr	r4, [sp, #12]
    391c:	e594501c 	ldr	r5, [r4, #28]
    3920:	e5943014 	ldr	r3, [r4, #20]
    3924:	e2452002 	sub	r2, r5, #2
    3928:	e1530002 	cmp	r3, r2
    392c:	e5884000 	str	r4, [r8]
    3930:	95873000 	strls	r3, [r7]
    3934:	9a00002e 	bls	39f4 <f_getfree+0x108>
    3938:	e5d43000 	ldrb	r3, [r4]
    393c:	e3530001 	cmp	r3, #1
    3940:	0a00002e 	beq	3a00 <f_getfree+0x114>
    3944:	e1a03006 	mov	r3, r6
    3948:	e1a02006 	mov	r2, r6
    394c:	e1a08006 	mov	r8, r6
    3950:	e5941028 	ldr	r1, [r4, #40]	; 0x28
    3954:	ea000008 	b	397c <f_getfree+0x90>
    3958:	e1d3e0b2 	ldrh	lr, [r3, #2]
    395c:	e2422004 	sub	r2, r2, #4
    3960:	e18cc40e 	orr	ip, ip, lr, lsl #8
    3964:	e180040c 	orr	r0, r0, ip, lsl #8
    3968:	e3d0020f 	bics	r0, r0, #-268435456	; 0xf0000000
    396c:	02888001 	addeq	r8, r8, #1
    3970:	e2555001 	subs	r5, r5, #1
    3974:	e2833004 	add	r3, r3, #4
    3978:	0a000018 	beq	39e0 <f_getfree+0xf4>
    397c:	e3520000 	cmp	r2, #0
    3980:	1a00000b 	bne	39b4 <f_getfree+0xc8>
    3984:	e5943034 	ldr	r3, [r4, #52]	; 0x34
    3988:	e2819001 	add	r9, r1, #1
    398c:	e1510003 	cmp	r1, r3
    3990:	0a000004 	beq	39a8 <f_getfree+0xbc>
    3994:	e1a00004 	mov	r0, r4
    3998:	ebfff297 	bl	3fc <move_window.part.4>
    399c:	e3500000 	cmp	r0, #0
    39a0:	1a00002a 	bne	3a50 <f_getfree+0x164>
    39a4:	e59d400c 	ldr	r4, [sp, #12]
    39a8:	e1a01009 	mov	r1, r9
    39ac:	e3a02c02 	mov	r2, #512	; 0x200
    39b0:	e2843038 	add	r3, r4, #56	; 0x38
    39b4:	e5d40000 	ldrb	r0, [r4]
    39b8:	e5d3c001 	ldrb	ip, [r3, #1]
    39bc:	e3500002 	cmp	r0, #2
    39c0:	e5d30000 	ldrb	r0, [r3]
    39c4:	1affffe3 	bne	3958 <f_getfree+0x6c>
    39c8:	e190040c 	orrs	r0, r0, ip, lsl #8
    39cc:	02888001 	addeq	r8, r8, #1
    39d0:	e2555001 	subs	r5, r5, #1
    39d4:	e2833002 	add	r3, r3, #2
    39d8:	e2422002 	sub	r2, r2, #2
    39dc:	1affffe6 	bne	397c <f_getfree+0x90>
    39e0:	e5878000 	str	r8, [r7]
    39e4:	e5d43004 	ldrb	r3, [r4, #4]
    39e8:	e5848014 	str	r8, [r4, #20]
    39ec:	e3833001 	orr	r3, r3, #1
    39f0:	e5c43004 	strb	r3, [r4, #4]
    39f4:	e1a00006 	mov	r0, r6
    39f8:	e28dd014 	add	sp, sp, #20
    39fc:	e8bd83f0 	pop	{r4, r5, r6, r7, r8, r9, pc}
    3a00:	e3a05002 	mov	r5, #2
    3a04:	e1a08006 	mov	r8, r6
    3a08:	ea000007 	b	3a2c <f_getfree+0x140>
    3a0c:	e3500001 	cmp	r0, #1
    3a10:	0a000011 	beq	3a5c <f_getfree+0x170>
    3a14:	e59d300c 	ldr	r3, [sp, #12]
    3a18:	e3500000 	cmp	r0, #0
    3a1c:	e593201c 	ldr	r2, [r3, #28]
    3a20:	02888001 	addeq	r8, r8, #1
    3a24:	e1520005 	cmp	r2, r5
    3a28:	9a00000e 	bls	3a68 <f_getfree+0x17c>
    3a2c:	e1a01005 	mov	r1, r5
    3a30:	e1a00004 	mov	r0, r4
    3a34:	ebfff482 	bl	c44 <get_fat.isra.7>
    3a38:	e3700001 	cmn	r0, #1
    3a3c:	e2855001 	add	r5, r5, #1
    3a40:	1afffff1 	bne	3a0c <f_getfree+0x120>
    3a44:	e3a06001 	mov	r6, #1
    3a48:	e59d400c 	ldr	r4, [sp, #12]
    3a4c:	eaffffe3 	b	39e0 <f_getfree+0xf4>
    3a50:	e1a06000 	mov	r6, r0
    3a54:	e59d400c 	ldr	r4, [sp, #12]
    3a58:	eaffffe0 	b	39e0 <f_getfree+0xf4>
    3a5c:	e59d400c 	ldr	r4, [sp, #12]
    3a60:	e3a06002 	mov	r6, #2
    3a64:	eaffffdd 	b	39e0 <f_getfree+0xf4>
    3a68:	e1a04003 	mov	r4, r3
    3a6c:	eaffffdb 	b	39e0 <f_getfree+0xf4>

00003a70 <f_truncate>:
    3a70:	e92d4030 	push	{r4, r5, lr}
    3a74:	e24dd00c 	sub	sp, sp, #12
    3a78:	e28d1004 	add	r1, sp, #4
    3a7c:	e1a04000 	mov	r4, r0
    3a80:	ebfff1d2 	bl	1d0 <validate>
    3a84:	e2505000 	subs	r5, r0, #0
    3a88:	1a00001a 	bne	3af8 <f_truncate+0x88>
    3a8c:	e5d45011 	ldrb	r5, [r4, #17]
    3a90:	e3550000 	cmp	r5, #0
    3a94:	1a000017 	bne	3af8 <f_truncate+0x88>
    3a98:	e5d43010 	ldrb	r3, [r4, #16]
    3a9c:	e3130002 	tst	r3, #2
    3aa0:	03a05007 	moveq	r5, #7
    3aa4:	0a000013 	beq	3af8 <f_truncate+0x88>
    3aa8:	e5943014 	ldr	r3, [r4, #20]
    3aac:	e594200c 	ldr	r2, [r4, #12]
    3ab0:	e1530002 	cmp	r3, r2
    3ab4:	2a00000f 	bcs	3af8 <f_truncate+0x88>
    3ab8:	e3530000 	cmp	r3, #0
    3abc:	1a000010 	bne	3b04 <f_truncate+0x94>
    3ac0:	e1a02005 	mov	r2, r5
    3ac4:	e5941008 	ldr	r1, [r4, #8]
    3ac8:	e1a00004 	mov	r0, r4
    3acc:	ebfff55c 	bl	1044 <remove_chain>
    3ad0:	e5845008 	str	r5, [r4, #8]
    3ad4:	e5d43010 	ldrb	r3, [r4, #16]
    3ad8:	e5942014 	ldr	r2, [r4, #20]
    3adc:	e3833040 	orr	r3, r3, #64	; 0x40
    3ae0:	e3500000 	cmp	r0, #0
    3ae4:	e5c43010 	strb	r3, [r4, #16]
    3ae8:	e584200c 	str	r2, [r4, #12]
    3aec:	1a00001b 	bne	3b60 <f_truncate+0xf0>
    3af0:	e3130080 	tst	r3, #128	; 0x80
    3af4:	1a00001c 	bne	3b6c <f_truncate+0xfc>
    3af8:	e1a00005 	mov	r0, r5
    3afc:	e28dd00c 	add	sp, sp, #12
    3b00:	e8bd8030 	pop	{r4, r5, pc}
    3b04:	e5941018 	ldr	r1, [r4, #24]
    3b08:	e5940000 	ldr	r0, [r4]
    3b0c:	ebfff44c 	bl	c44 <get_fat.isra.7>
    3b10:	e3700001 	cmn	r0, #1
    3b14:	0a000020 	beq	3b9c <f_truncate+0x12c>
    3b18:	e3500001 	cmp	r0, #1
    3b1c:	0a000009 	beq	3b48 <f_truncate+0xd8>
    3b20:	e59d3004 	ldr	r3, [sp, #4]
    3b24:	e593301c 	ldr	r3, [r3, #28]
    3b28:	e1530000 	cmp	r3, r0
    3b2c:	8a00001c 	bhi	3ba4 <f_truncate+0x134>
    3b30:	e5d43010 	ldrb	r3, [r4, #16]
    3b34:	e5942014 	ldr	r2, [r4, #20]
    3b38:	e3833040 	orr	r3, r3, #64	; 0x40
    3b3c:	e5c43010 	strb	r3, [r4, #16]
    3b40:	e584200c 	str	r2, [r4, #12]
    3b44:	eaffffe9 	b	3af0 <f_truncate+0x80>
    3b48:	e3a00002 	mov	r0, #2
    3b4c:	e5d43010 	ldrb	r3, [r4, #16]
    3b50:	e5942014 	ldr	r2, [r4, #20]
    3b54:	e3833040 	orr	r3, r3, #64	; 0x40
    3b58:	e5c43010 	strb	r3, [r4, #16]
    3b5c:	e584200c 	str	r2, [r4, #12]
    3b60:	e5c40011 	strb	r0, [r4, #17]
    3b64:	e1a05000 	mov	r5, r0
    3b68:	eaffffe2 	b	3af8 <f_truncate+0x88>
    3b6c:	e59d2004 	ldr	r2, [sp, #4]
    3b70:	e3a03001 	mov	r3, #1
    3b74:	e5d20001 	ldrb	r0, [r2, #1]
    3b78:	e2841028 	add	r1, r4, #40	; 0x28
    3b7c:	e594201c 	ldr	r2, [r4, #28]
    3b80:	ebfffffe 	bl	0 <disk_write>
    3b84:	e2505000 	subs	r5, r0, #0
    3b88:	1a00000a 	bne	3bb8 <f_truncate+0x148>
    3b8c:	e5d43010 	ldrb	r3, [r4, #16]
    3b90:	e203307f 	and	r3, r3, #127	; 0x7f
    3b94:	e5c43010 	strb	r3, [r4, #16]
    3b98:	eaffffd6 	b	3af8 <f_truncate+0x88>
    3b9c:	e3a00001 	mov	r0, #1
    3ba0:	eaffffe9 	b	3b4c <f_truncate+0xdc>
    3ba4:	e1a01000 	mov	r1, r0
    3ba8:	e5942018 	ldr	r2, [r4, #24]
    3bac:	e1a00004 	mov	r0, r4
    3bb0:	ebfff523 	bl	1044 <remove_chain>
    3bb4:	eaffffc6 	b	3ad4 <f_truncate+0x64>
    3bb8:	e3a00001 	mov	r0, #1
    3bbc:	eaffffe7 	b	3b60 <f_truncate+0xf0>

00003bc0 <f_unlink>:
    3bc0:	e92d4010 	push	{r4, lr}
    3bc4:	e24dd078 	sub	sp, sp, #120	; 0x78
    3bc8:	e58d0004 	str	r0, [sp, #4]
    3bcc:	e3a02002 	mov	r2, #2
    3bd0:	e28d100c 	add	r1, sp, #12
    3bd4:	e28d0004 	add	r0, sp, #4
    3bd8:	ebfff256 	bl	538 <find_volume>
    3bdc:	e59d300c 	ldr	r3, [sp, #12]
    3be0:	e3500000 	cmp	r0, #0
    3be4:	e58d3010 	str	r3, [sp, #16]
    3be8:	0a000001 	beq	3bf4 <f_unlink+0x34>
    3bec:	e28dd078 	add	sp, sp, #120	; 0x78
    3bf0:	e8bd8010 	pop	{r4, pc}
    3bf4:	e28d0010 	add	r0, sp, #16
    3bf8:	e59d1004 	ldr	r1, [sp, #4]
    3bfc:	ebfff746 	bl	191c <follow_path>
    3c00:	e3500000 	cmp	r0, #0
    3c04:	1afffff8 	bne	3bec <f_unlink+0x2c>
    3c08:	e5dd303b 	ldrb	r3, [sp, #59]	; 0x3b
    3c0c:	e3130020 	tst	r3, #32
    3c10:	1a00002f 	bne	3cd4 <f_unlink+0x114>
    3c14:	e3130080 	tst	r3, #128	; 0x80
    3c18:	1a00002d 	bne	3cd4 <f_unlink+0x114>
    3c1c:	e5dd3016 	ldrb	r3, [sp, #22]
    3c20:	e3130001 	tst	r3, #1
    3c24:	1a00002d 	bne	3ce0 <f_unlink+0x120>
    3c28:	e59dc00c 	ldr	ip, [sp, #12]
    3c2c:	e59d202c 	ldr	r2, [sp, #44]	; 0x2c
    3c30:	e5dc0000 	ldrb	r0, [ip]
    3c34:	e5d2101b 	ldrb	r1, [r2, #27]
    3c38:	e5d2401a 	ldrb	r4, [r2, #26]
    3c3c:	e3500003 	cmp	r0, #3
    3c40:	e1844401 	orr	r4, r4, r1, lsl #8
    3c44:	05d21015 	ldrbeq	r1, [r2, #21]
    3c48:	05d22014 	ldrbeq	r2, [r2, #20]
    3c4c:	01822401 	orreq	r2, r2, r1, lsl #8
    3c50:	01844802 	orreq	r4, r4, r2, lsl #16
    3c54:	e3130010 	tst	r3, #16
    3c58:	0a000010 	beq	3ca0 <f_unlink+0xe0>
    3c5c:	e59c3018 	ldr	r3, [ip, #24]
    3c60:	e1530004 	cmp	r3, r4
    3c64:	0a00001d 	beq	3ce0 <f_unlink+0x120>
    3c68:	e28d0044 	add	r0, sp, #68	; 0x44
    3c6c:	e3a01000 	mov	r1, #0
    3c70:	e58dc044 	str	ip, [sp, #68]	; 0x44
    3c74:	e58d404c 	str	r4, [sp, #76]	; 0x4c
    3c78:	ebfff44d 	bl	db4 <dir_sdi>
    3c7c:	e3500000 	cmp	r0, #0
    3c80:	1affffd9 	bne	3bec <f_unlink+0x2c>
    3c84:	e1a01000 	mov	r1, r0
    3c88:	e28d0044 	add	r0, sp, #68	; 0x44
    3c8c:	ebfff5cf 	bl	13d0 <dir_read>
    3c90:	e3500000 	cmp	r0, #0
    3c94:	0a000011 	beq	3ce0 <f_unlink+0x120>
    3c98:	e3500004 	cmp	r0, #4
    3c9c:	1affffd2 	bne	3bec <f_unlink+0x2c>
    3ca0:	e28d0010 	add	r0, sp, #16
    3ca4:	ebfff64e 	bl	15e4 <dir_remove>
    3ca8:	e2943000 	adds	r3, r4, #0
    3cac:	13a03001 	movne	r3, #1
    3cb0:	e3500000 	cmp	r0, #0
    3cb4:	13a03000 	movne	r3, #0
    3cb8:	e3530000 	cmp	r3, #0
    3cbc:	1a000009 	bne	3ce8 <f_unlink+0x128>
    3cc0:	e3500000 	cmp	r0, #0
    3cc4:	1affffc8 	bne	3bec <f_unlink+0x2c>
    3cc8:	e59d000c 	ldr	r0, [sp, #12]
    3ccc:	ebfff183 	bl	2e0 <sync_fs>
    3cd0:	eaffffc5 	b	3bec <f_unlink+0x2c>
    3cd4:	e3a00006 	mov	r0, #6
    3cd8:	e28dd078 	add	sp, sp, #120	; 0x78
    3cdc:	e8bd8010 	pop	{r4, pc}
    3ce0:	e3a00007 	mov	r0, #7
    3ce4:	eaffffc0 	b	3bec <f_unlink+0x2c>
    3ce8:	e1a01004 	mov	r1, r4
    3cec:	e28d0010 	add	r0, sp, #16
    3cf0:	e3a02000 	mov	r2, #0
    3cf4:	ebfff4d2 	bl	1044 <remove_chain>
    3cf8:	eafffff0 	b	3cc0 <f_unlink+0x100>

00003cfc <f_mkdir>:
    3cfc:	e92d4ff0 	push	{r4, r5, r6, r7, r8, r9, sl, fp, lr}
    3d00:	e24dd05c 	sub	sp, sp, #92	; 0x5c
    3d04:	e58d001c 	str	r0, [sp, #28]
    3d08:	e3a02002 	mov	r2, #2
    3d0c:	e28d1020 	add	r1, sp, #32
    3d10:	e28d001c 	add	r0, sp, #28
    3d14:	ebfff207 	bl	538 <find_volume>
    3d18:	e59d3020 	ldr	r3, [sp, #32]
    3d1c:	e2504000 	subs	r4, r0, #0
    3d20:	e58d3024 	str	r3, [sp, #36]	; 0x24
    3d24:	0a000002 	beq	3d34 <f_mkdir+0x38>
    3d28:	e1a00004 	mov	r0, r4
    3d2c:	e28dd05c 	add	sp, sp, #92	; 0x5c
    3d30:	e8bd8ff0 	pop	{r4, r5, r6, r7, r8, r9, sl, fp, pc}
    3d34:	e28d0024 	add	r0, sp, #36	; 0x24
    3d38:	e59d101c 	ldr	r1, [sp, #28]
    3d3c:	ebfff6f6 	bl	191c <follow_path>
    3d40:	e2504000 	subs	r4, r0, #0
    3d44:	03a04008 	moveq	r4, #8
    3d48:	0afffff6 	beq	3d28 <f_mkdir+0x2c>
    3d4c:	e3540004 	cmp	r4, #4
    3d50:	1afffff4 	bne	3d28 <f_mkdir+0x2c>
    3d54:	e5dd604f 	ldrb	r6, [sp, #79]	; 0x4f
    3d58:	e2166020 	ands	r6, r6, #32
    3d5c:	13a04006 	movne	r4, #6
    3d60:	1afffff0 	bne	3d28 <f_mkdir+0x2c>
    3d64:	e1a01006 	mov	r1, r6
    3d68:	e28d0024 	add	r0, sp, #36	; 0x24
    3d6c:	ebfff45b 	bl	ee0 <create_chain>
    3d70:	e59d2020 	ldr	r2, [sp, #32]
    3d74:	e2509000 	subs	r9, r0, #0
    3d78:	e1d230ba 	ldrh	r3, [r2, #10]
    3d7c:	e1a03483 	lsl	r3, r3, #9
    3d80:	e58d3030 	str	r3, [sp, #48]	; 0x30
    3d84:	0a00006d 	beq	3f40 <f_mkdir+0x244>
    3d88:	e3590001 	cmp	r9, #1
    3d8c:	0a00009d 	beq	4008 <f_mkdir+0x30c>
    3d90:	e3790001 	cmn	r9, #1
    3d94:	0a000092 	beq	3fe4 <f_mkdir+0x2e8>
    3d98:	e5d23003 	ldrb	r3, [r2, #3]
    3d9c:	e3530000 	cmp	r3, #0
    3da0:	0a00009b 	beq	4014 <f_mkdir+0x318>
    3da4:	e1a00002 	mov	r0, r2
    3da8:	ebfff12a 	bl	258 <sync_window.part.3>
    3dac:	e1a04000 	mov	r4, r0
    3db0:	ebfffffe 	bl	0 <get_fattime>
    3db4:	e3540000 	cmp	r4, #0
    3db8:	1a000062 	bne	3f48 <f_mkdir+0x24c>
    3dbc:	e59d4020 	ldr	r4, [sp, #32]
    3dc0:	e2492002 	sub	r2, r9, #2
    3dc4:	e594301c 	ldr	r3, [r4, #28]
    3dc8:	e2847038 	add	r7, r4, #56	; 0x38
    3dcc:	e2433002 	sub	r3, r3, #2
    3dd0:	e1520003 	cmp	r2, r3
    3dd4:	31d410ba 	ldrhcc	r1, [r4, #10]
    3dd8:	35943030 	ldrcc	r3, [r4, #48]	; 0x30
    3ddc:	23a0a000 	movcs	sl, #0
    3de0:	302a3192 	mlacc	sl, r2, r1, r3
    3de4:	e1a02007 	mov	r2, r7
    3de8:	e3a01000 	mov	r1, #0
    3dec:	e2845f8e 	add	r5, r4, #568	; 0x238
    3df0:	e4c21001 	strb	r1, [r2], #1
    3df4:	e1550002 	cmp	r5, r2
    3df8:	1afffffc 	bne	3df0 <f_mkdir+0xf4>
    3dfc:	e1a02007 	mov	r2, r7
    3e00:	e3a0c020 	mov	ip, #32
    3e04:	e2841043 	add	r1, r4, #67	; 0x43
    3e08:	e4c2c001 	strb	ip, [r2], #1
    3e0c:	e1510002 	cmp	r1, r2
    3e10:	1afffffc 	bne	3e08 <f_mkdir+0x10c>
    3e14:	e3a01010 	mov	r1, #16
    3e18:	e3a0c02e 	mov	ip, #46	; 0x2e
    3e1c:	e6ff2079 	uxth	r2, r9
    3e20:	e1a0b130 	lsr	fp, r0, r1
    3e24:	e1a0e420 	lsr	lr, r0, #8
    3e28:	e1a02422 	lsr	r2, r2, #8
    3e2c:	e6ef307e 	uxtb	r3, lr
    3e30:	e6ef8070 	uxtb	r8, r0
    3e34:	e6efe07b 	uxtb	lr, fp
    3e38:	e1a00c20 	lsr	r0, r0, #24
    3e3c:	e5c42053 	strb	r2, [r4, #83]	; 0x53
    3e40:	e58d2008 	str	r2, [sp, #8]
    3e44:	e6efb079 	uxtb	fp, r9
    3e48:	e59d2020 	ldr	r2, [sp, #32]
    3e4c:	e5c41043 	strb	r1, [r4, #67]	; 0x43
    3e50:	e5c40051 	strb	r0, [r4, #81]	; 0x51
    3e54:	e5c4304f 	strb	r3, [r4, #79]	; 0x4f
    3e58:	e5c4e050 	strb	lr, [r4, #80]	; 0x50
    3e5c:	e5c4c038 	strb	ip, [r4, #56]	; 0x38
    3e60:	e5c4804e 	strb	r8, [r4, #78]	; 0x4e
    3e64:	e5c4b052 	strb	fp, [r4, #82]	; 0x52
    3e68:	e5d22000 	ldrb	r2, [r2]
    3e6c:	e58d0018 	str	r0, [sp, #24]
    3e70:	e3520003 	cmp	r2, #3
    3e74:	01a02139 	lsreq	r2, r9, r1
    3e78:	01a01422 	lsreq	r1, r2, #8
    3e7c:	05c4204c 	strbeq	r2, [r4, #76]	; 0x4c
    3e80:	05c4104d 	strbeq	r1, [r4, #77]	; 0x4d
    3e84:	e3a02020 	mov	r2, #32
    3e88:	e1a01007 	mov	r1, r7
    3e8c:	e2840058 	add	r0, r4, #88	; 0x58
    3e90:	e58d3010 	str	r3, [sp, #16]
    3e94:	e58de014 	str	lr, [sp, #20]
    3e98:	e58d800c 	str	r8, [sp, #12]
    3e9c:	e58db004 	str	fp, [sp, #4]
    3ea0:	ebfff0e5 	bl	23c <mem_cpy.part.0>
    3ea4:	e3a0202e 	mov	r2, #46	; 0x2e
    3ea8:	e59d0020 	ldr	r0, [sp, #32]
    3eac:	e5c42059 	strb	r2, [r4, #89]	; 0x59
    3eb0:	e5d01000 	ldrb	r1, [r0]
    3eb4:	e59d202c 	ldr	r2, [sp, #44]	; 0x2c
    3eb8:	e3510003 	cmp	r1, #3
    3ebc:	0a00004b 	beq	3ff0 <f_mkdir+0x2f4>
    3ec0:	e6ff1072 	uxth	r1, r2
    3ec4:	e1a01421 	lsr	r1, r1, #8
    3ec8:	e6ef6072 	uxtb	r6, r2
    3ecc:	e5c46072 	strb	r6, [r4, #114]	; 0x72
    3ed0:	e5c41073 	strb	r1, [r4, #115]	; 0x73
    3ed4:	e5d01000 	ldrb	r1, [r0]
    3ed8:	e3510003 	cmp	r1, #3
    3edc:	01a02822 	lsreq	r2, r2, #16
    3ee0:	01a01422 	lsreq	r1, r2, #8
    3ee4:	05c4206c 	strbeq	r2, [r4, #108]	; 0x6c
    3ee8:	05c4106d 	strbeq	r1, [r4, #109]	; 0x6d
    3eec:	e1d020ba 	ldrh	r2, [r0, #10]
    3ef0:	e3520000 	cmp	r2, #0
    3ef4:	0a000018 	beq	3f5c <f_mkdir+0x260>
    3ef8:	e3a08001 	mov	r8, #1
    3efc:	e3a0b000 	mov	fp, #0
    3f00:	e2422001 	sub	r2, r2, #1
    3f04:	e082600a 	add	r6, r2, sl
    3f08:	e580a034 	str	sl, [r0, #52]	; 0x34
    3f0c:	e5c08003 	strb	r8, [r0, #3]
    3f10:	ebfff0d0 	bl	258 <sync_window.part.3>
    3f14:	e3500000 	cmp	r0, #0
    3f18:	1a00002f 	bne	3fdc <f_mkdir+0x2e0>
    3f1c:	e1a03007 	mov	r3, r7
    3f20:	e4c3b001 	strb	fp, [r3], #1
    3f24:	e1550003 	cmp	r5, r3
    3f28:	1afffffc 	bne	3f20 <f_mkdir+0x224>
    3f2c:	e156000a 	cmp	r6, sl
    3f30:	0a000009 	beq	3f5c <f_mkdir+0x260>
    3f34:	e28aa001 	add	sl, sl, #1
    3f38:	e59d0020 	ldr	r0, [sp, #32]
    3f3c:	eafffff1 	b	3f08 <f_mkdir+0x20c>
    3f40:	ebfffffe 	bl	0 <get_fattime>
    3f44:	e3a04007 	mov	r4, #7
    3f48:	e1a01009 	mov	r1, r9
    3f4c:	e28d0024 	add	r0, sp, #36	; 0x24
    3f50:	e3a02000 	mov	r2, #0
    3f54:	ebfff43a 	bl	1044 <remove_chain>
    3f58:	eaffff72 	b	3d28 <f_mkdir+0x2c>
    3f5c:	e28d0024 	add	r0, sp, #36	; 0x24
    3f60:	ebfff7cc 	bl	1e98 <dir_register>
    3f64:	e2504000 	subs	r4, r0, #0
    3f68:	1afffff6 	bne	3f48 <f_mkdir+0x24c>
    3f6c:	e59d3040 	ldr	r3, [sp, #64]	; 0x40
    3f70:	e59d100c 	ldr	r1, [sp, #12]
    3f74:	e59d2020 	ldr	r2, [sp, #32]
    3f78:	e5c31016 	strb	r1, [r3, #22]
    3f7c:	e59d1010 	ldr	r1, [sp, #16]
    3f80:	e3a00010 	mov	r0, #16
    3f84:	e5c31017 	strb	r1, [r3, #23]
    3f88:	e59d1014 	ldr	r1, [sp, #20]
    3f8c:	e5c31018 	strb	r1, [r3, #24]
    3f90:	e59d1018 	ldr	r1, [sp, #24]
    3f94:	e5c31019 	strb	r1, [r3, #25]
    3f98:	e59d1004 	ldr	r1, [sp, #4]
    3f9c:	e5c3101a 	strb	r1, [r3, #26]
    3fa0:	e59d1008 	ldr	r1, [sp, #8]
    3fa4:	e5c3101b 	strb	r1, [r3, #27]
    3fa8:	e5d21000 	ldrb	r1, [r2]
    3fac:	e5c3000b 	strb	r0, [r3, #11]
    3fb0:	e3510003 	cmp	r1, #3
    3fb4:	01a09829 	lsreq	r9, r9, #16
    3fb8:	01a01429 	lsreq	r1, r9, #8
    3fbc:	05c31015 	strbeq	r1, [r3, #21]
    3fc0:	e3a01001 	mov	r1, #1
    3fc4:	05c39014 	strbeq	r9, [r3, #20]
    3fc8:	e1a00002 	mov	r0, r2
    3fcc:	e5c21003 	strb	r1, [r2, #3]
    3fd0:	ebfff0c2 	bl	2e0 <sync_fs>
    3fd4:	e1a04000 	mov	r4, r0
    3fd8:	eaffff52 	b	3d28 <f_mkdir+0x2c>
    3fdc:	e1a04000 	mov	r4, r0
    3fe0:	eaffffd8 	b	3f48 <f_mkdir+0x24c>
    3fe4:	ebfffffe 	bl	0 <get_fattime>
    3fe8:	e3a04001 	mov	r4, #1
    3fec:	eaffffd5 	b	3f48 <f_mkdir+0x24c>
    3ff0:	e590102c 	ldr	r1, [r0, #44]	; 0x2c
    3ff4:	e1510002 	cmp	r1, r2
    3ff8:	1affffb0 	bne	3ec0 <f_mkdir+0x1c4>
    3ffc:	e3a01000 	mov	r1, #0
    4000:	e1a02001 	mov	r2, r1
    4004:	eaffffb0 	b	3ecc <f_mkdir+0x1d0>
    4008:	ebfffffe 	bl	0 <get_fattime>
    400c:	e3a04002 	mov	r4, #2
    4010:	eaffffcc 	b	3f48 <f_mkdir+0x24c>
    4014:	ebfffffe 	bl	0 <get_fattime>
    4018:	eaffff67 	b	3dbc <f_mkdir+0xc0>

0000401c <f_rename>:
    401c:	e92d4010 	push	{r4, lr}
    4020:	e24dd090 	sub	sp, sp, #144	; 0x90
    4024:	e58d0004 	str	r0, [sp, #4]
    4028:	e1a0000d 	mov	r0, sp
    402c:	e58d1000 	str	r1, [sp]
    4030:	ebfff047 	bl	154 <get_ldnumber>
    4034:	e3a02002 	mov	r2, #2
    4038:	e28d100c 	add	r1, sp, #12
    403c:	e28d0004 	add	r0, sp, #4
    4040:	ebfff13c 	bl	538 <find_volume>
    4044:	e3500000 	cmp	r0, #0
    4048:	0a000001 	beq	4054 <f_rename+0x38>
    404c:	e28dd090 	add	sp, sp, #144	; 0x90
    4050:	e8bd8010 	pop	{r4, pc}
    4054:	e59d300c 	ldr	r3, [sp, #12]
    4058:	e28d0028 	add	r0, sp, #40	; 0x28
    405c:	e59d1004 	ldr	r1, [sp, #4]
    4060:	e58d3028 	str	r3, [sp, #40]	; 0x28
    4064:	ebfff62c 	bl	191c <follow_path>
    4068:	e3500000 	cmp	r0, #0
    406c:	1afffff6 	bne	404c <f_rename+0x30>
    4070:	e5dd3053 	ldrb	r3, [sp, #83]	; 0x53
    4074:	e31300a0 	tst	r3, #160	; 0xa0
    4078:	13a00006 	movne	r0, #6
    407c:	1afffff2 	bne	404c <f_rename+0x30>
    4080:	e59d1044 	ldr	r1, [sp, #68]	; 0x44
    4084:	e3a02015 	mov	r2, #21
    4088:	e281100b 	add	r1, r1, #11
    408c:	e28d0010 	add	r0, sp, #16
    4090:	ebfff069 	bl	23c <mem_cpy.part.0>
    4094:	e28d005c 	add	r0, sp, #92	; 0x5c
    4098:	e3a02034 	mov	r2, #52	; 0x34
    409c:	e28d1028 	add	r1, sp, #40	; 0x28
    40a0:	ebfff065 	bl	23c <mem_cpy.part.0>
    40a4:	e28d005c 	add	r0, sp, #92	; 0x5c
    40a8:	e59d1000 	ldr	r1, [sp]
    40ac:	ebfff61a 	bl	191c <follow_path>
    40b0:	e3500000 	cmp	r0, #0
    40b4:	0a000049 	beq	41e0 <f_rename+0x1c4>
    40b8:	e3500004 	cmp	r0, #4
    40bc:	1affffe2 	bne	404c <f_rename+0x30>
    40c0:	e28d005c 	add	r0, sp, #92	; 0x5c
    40c4:	ebfff773 	bl	1e98 <dir_register>
    40c8:	e3500000 	cmp	r0, #0
    40cc:	1affffde 	bne	404c <f_rename+0x30>
    40d0:	e59d4078 	ldr	r4, [sp, #120]	; 0x78
    40d4:	e3a02013 	mov	r2, #19
    40d8:	e284000d 	add	r0, r4, #13
    40dc:	e28d1012 	add	r1, sp, #18
    40e0:	ebfff055 	bl	23c <mem_cpy.part.0>
    40e4:	e3a02001 	mov	r2, #1
    40e8:	e5dd3010 	ldrb	r3, [sp, #16]
    40ec:	e59d000c 	ldr	r0, [sp, #12]
    40f0:	e3833020 	orr	r3, r3, #32
    40f4:	e5c4300b 	strb	r3, [r4, #11]
    40f8:	e5c02003 	strb	r2, [r0, #3]
    40fc:	e5d4300b 	ldrb	r3, [r4, #11]
    4100:	e3130010 	tst	r3, #16
    4104:	0a00002e 	beq	41c4 <f_rename+0x1a8>
    4108:	e59d2030 	ldr	r2, [sp, #48]	; 0x30
    410c:	e59d3064 	ldr	r3, [sp, #100]	; 0x64
    4110:	e1520003 	cmp	r2, r3
    4114:	0a00002a 	beq	41c4 <f_rename+0x1a8>
    4118:	e5d01000 	ldrb	r1, [r0]
    411c:	e5d4201b 	ldrb	r2, [r4, #27]
    4120:	e5d4301a 	ldrb	r3, [r4, #26]
    4124:	e3510003 	cmp	r1, #3
    4128:	e1833402 	orr	r3, r3, r2, lsl #8
    412c:	05d41015 	ldrbeq	r1, [r4, #21]
    4130:	05d42014 	ldrbeq	r2, [r4, #20]
    4134:	01822401 	orreq	r2, r2, r1, lsl #8
    4138:	01833802 	orreq	r3, r3, r2, lsl #16
    413c:	e590201c 	ldr	r2, [r0, #28]
    4140:	e2433002 	sub	r3, r3, #2
    4144:	e2422002 	sub	r2, r2, #2
    4148:	e1530002 	cmp	r3, r2
    414c:	2a00002e 	bcs	420c <f_rename+0x1f0>
    4150:	e1d010ba 	ldrh	r1, [r0, #10]
    4154:	e5902030 	ldr	r2, [r0, #48]	; 0x30
    4158:	e03c2193 	mlas	ip, r3, r1, r2
    415c:	0a00002a 	beq	420c <f_rename+0x1f0>
    4160:	e5903034 	ldr	r3, [r0, #52]	; 0x34
    4164:	e15c0003 	cmp	ip, r3
    4168:	0a000004 	beq	4180 <f_rename+0x164>
    416c:	e1a0100c 	mov	r1, ip
    4170:	ebfff0a1 	bl	3fc <move_window.part.4>
    4174:	e3500000 	cmp	r0, #0
    4178:	1affffb3 	bne	404c <f_rename+0x30>
    417c:	e59d000c 	ldr	r0, [sp, #12]
    4180:	e5d03059 	ldrb	r3, [r0, #89]	; 0x59
    4184:	e353002e 	cmp	r3, #46	; 0x2e
    4188:	1a00000d 	bne	41c4 <f_rename+0x1a8>
    418c:	e59d3064 	ldr	r3, [sp, #100]	; 0x64
    4190:	e59d100c 	ldr	r1, [sp, #12]
    4194:	e6ff2073 	uxth	r2, r3
    4198:	e1a02422 	lsr	r2, r2, #8
    419c:	e5c03072 	strb	r3, [r0, #114]	; 0x72
    41a0:	e5c02073 	strb	r2, [r0, #115]	; 0x73
    41a4:	e5d12000 	ldrb	r2, [r1]
    41a8:	e3520003 	cmp	r2, #3
    41ac:	01a03823 	lsreq	r3, r3, #16
    41b0:	01a02423 	lsreq	r2, r3, #8
    41b4:	05c0306c 	strbeq	r3, [r0, #108]	; 0x6c
    41b8:	e3a03001 	mov	r3, #1
    41bc:	05c0206d 	strbeq	r2, [r0, #109]	; 0x6d
    41c0:	e5c13003 	strb	r3, [r1, #3]
    41c4:	e28d0028 	add	r0, sp, #40	; 0x28
    41c8:	ebfff505 	bl	15e4 <dir_remove>
    41cc:	e3500000 	cmp	r0, #0
    41d0:	1affff9d 	bne	404c <f_rename+0x30>
    41d4:	e59d000c 	ldr	r0, [sp, #12]
    41d8:	ebfff040 	bl	2e0 <sync_fs>
    41dc:	eaffff9a 	b	404c <f_rename+0x30>
    41e0:	e59d2064 	ldr	r2, [sp, #100]	; 0x64
    41e4:	e59d3030 	ldr	r3, [sp, #48]	; 0x30
    41e8:	e1520003 	cmp	r2, r3
    41ec:	0a000001 	beq	41f8 <f_rename+0x1dc>
    41f0:	e3a00008 	mov	r0, #8
    41f4:	eaffff94 	b	404c <f_rename+0x30>
    41f8:	e59d206c 	ldr	r2, [sp, #108]	; 0x6c
    41fc:	e59d3038 	ldr	r3, [sp, #56]	; 0x38
    4200:	e1520003 	cmp	r2, r3
    4204:	1afffff9 	bne	41f0 <f_rename+0x1d4>
    4208:	eaffffac 	b	40c0 <f_rename+0xa4>
    420c:	e3a00002 	mov	r0, #2
    4210:	eaffff8d 	b	404c <f_rename+0x30>

00004214 <f_getlabel>:
    4214:	e92d4070 	push	{r4, r5, r6, lr}
    4218:	e24dd040 	sub	sp, sp, #64	; 0x40
    421c:	e58d0004 	str	r0, [sp, #4]
    4220:	e1a04001 	mov	r4, r1
    4224:	e1a05002 	mov	r5, r2
    4228:	e28d1008 	add	r1, sp, #8
    422c:	e3a02000 	mov	r2, #0
    4230:	e28d0004 	add	r0, sp, #4
    4234:	ebfff0bf 	bl	538 <find_volume>
    4238:	e16f3f10 	clz	r3, r0
    423c:	e3540000 	cmp	r4, #0
    4240:	e1a032a3 	lsr	r3, r3, #5
    4244:	11a06003 	movne	r6, r3
    4248:	03a06000 	moveq	r6, #0
    424c:	e3560000 	cmp	r6, #0
    4250:	1a00001e 	bne	42d0 <f_getlabel+0xbc>
    4254:	e3550000 	cmp	r5, #0
    4258:	03a03000 	moveq	r3, #0
    425c:	e3530000 	cmp	r3, #0
    4260:	0a000018 	beq	42c8 <f_getlabel+0xb4>
    4264:	e59d0008 	ldr	r0, [sp, #8]
    4268:	e5901024 	ldr	r1, [r0, #36]	; 0x24
    426c:	e5903034 	ldr	r3, [r0, #52]	; 0x34
    4270:	e1510003 	cmp	r1, r3
    4274:	0a000003 	beq	4288 <f_getlabel+0x74>
    4278:	ebfff05f 	bl	3fc <move_window.part.4>
    427c:	e3500000 	cmp	r0, #0
    4280:	1a000010 	bne	42c8 <f_getlabel+0xb4>
    4284:	e59d0008 	ldr	r0, [sp, #8]
    4288:	e5d03000 	ldrb	r3, [r0]
    428c:	e3530003 	cmp	r3, #3
    4290:	03a01043 	moveq	r1, #67	; 0x43
    4294:	0a000002 	beq	42a4 <f_getlabel+0x90>
    4298:	e3530004 	cmp	r3, #4
    429c:	03a01064 	moveq	r1, #100	; 0x64
    42a0:	13a01027 	movne	r1, #39	; 0x27
    42a4:	e2800038 	add	r0, r0, #56	; 0x38
    42a8:	e080c001 	add	ip, r0, r1
    42ac:	e7d03001 	ldrb	r3, [r0, r1]
    42b0:	e3a00000 	mov	r0, #0
    42b4:	e1dce0b2 	ldrh	lr, [ip, #2]
    42b8:	e5dc2001 	ldrb	r2, [ip, #1]
    42bc:	e182240e 	orr	r2, r2, lr, lsl #8
    42c0:	e1833402 	orr	r3, r3, r2, lsl #8
    42c4:	e5853000 	str	r3, [r5]
    42c8:	e28dd040 	add	sp, sp, #64	; 0x40
    42cc:	e8bd8070 	pop	{r4, r5, r6, pc}
    42d0:	e3a03000 	mov	r3, #0
    42d4:	e59d2008 	ldr	r2, [sp, #8]
    42d8:	e1a01003 	mov	r1, r3
    42dc:	e28d000c 	add	r0, sp, #12
    42e0:	e58d3014 	str	r3, [sp, #20]
    42e4:	e58d200c 	str	r2, [sp, #12]
    42e8:	ebfff2b1 	bl	db4 <dir_sdi>
    42ec:	e3500000 	cmp	r0, #0
    42f0:	0a000006 	beq	4310 <f_getlabel+0xfc>
    42f4:	e3500004 	cmp	r0, #4
    42f8:	1afffff2 	bne	42c8 <f_getlabel+0xb4>
    42fc:	e3a02000 	mov	r2, #0
    4300:	e1a03006 	mov	r3, r6
    4304:	e1a00002 	mov	r0, r2
    4308:	e5c42000 	strb	r2, [r4]
    430c:	eaffffd0 	b	4254 <f_getlabel+0x40>
    4310:	e28d000c 	add	r0, sp, #12
    4314:	e3a01001 	mov	r1, #1
    4318:	ebfff42c 	bl	13d0 <dir_read>
    431c:	e3500000 	cmp	r0, #0
    4320:	1afffff3 	bne	42f4 <f_getlabel+0xe0>
    4324:	e59dc028 	ldr	ip, [sp, #40]	; 0x28
    4328:	e2442001 	sub	r2, r4, #1
    432c:	e24c3001 	sub	r3, ip, #1
    4330:	e28cc00a 	add	ip, ip, #10
    4334:	e5f31001 	ldrb	r1, [r3, #1]!
    4338:	e15c0003 	cmp	ip, r3
    433c:	e5e21001 	strb	r1, [r2, #1]!
    4340:	1afffffb 	bne	4334 <f_getlabel+0x120>
    4344:	e3a01000 	mov	r1, #0
    4348:	e1a03004 	mov	r3, r4
    434c:	e5e3100b 	strb	r1, [r3, #11]!
    4350:	e5732001 	ldrb	r2, [r3, #-1]!
    4354:	e3520020 	cmp	r2, #32
    4358:	1a000002 	bne	4368 <f_getlabel+0x154>
    435c:	e1540003 	cmp	r4, r3
    4360:	e5c31000 	strb	r1, [r3]
    4364:	1afffff9 	bne	4350 <f_getlabel+0x13c>
    4368:	e1a03006 	mov	r3, r6
    436c:	eaffffb8 	b	4254 <f_getlabel+0x40>

00004370 <f_setlabel>:
    4370:	e92d4070 	push	{r4, r5, r6, lr}
    4374:	e24dd058 	sub	sp, sp, #88	; 0x58
    4378:	e58d0004 	str	r0, [sp, #4]
    437c:	e3a02002 	mov	r2, #2
    4380:	e28d1008 	add	r1, sp, #8
    4384:	e28d0004 	add	r0, sp, #4
    4388:	ebfff06a 	bl	538 <find_volume>
    438c:	e2505000 	subs	r5, r0, #0
    4390:	1a00001f 	bne	4414 <f_setlabel+0xa4>
    4394:	e1cd20d4 	ldrd	r2, [sp, #4]
    4398:	e58d3024 	str	r3, [sp, #36]	; 0x24
    439c:	e5d23000 	ldrb	r3, [r2]
    43a0:	e1a04005 	mov	r4, r5
    43a4:	e353001f 	cmp	r3, #31
    43a8:	9a000012 	bls	43f8 <f_setlabel+0x88>
    43ac:	e1a03002 	mov	r3, r2
    43b0:	ea000000 	b	43b8 <f_setlabel+0x48>
    43b4:	e1a04000 	mov	r4, r0
    43b8:	e5f31001 	ldrb	r1, [r3, #1]!
    43bc:	e2840001 	add	r0, r4, #1
    43c0:	e351001f 	cmp	r1, #31
    43c4:	8afffffa 	bhi	43b4 <f_setlabel+0x44>
    43c8:	e7d21004 	ldrb	r1, [r2, r4]
    43cc:	e0823004 	add	r3, r2, r4
    43d0:	e3510020 	cmp	r1, #32
    43d4:	0a000005 	beq	43f0 <f_setlabel+0x80>
    43d8:	ea000010 	b	4420 <f_setlabel+0xb0>
    43dc:	e5731001 	ldrb	r1, [r3, #-1]!
    43e0:	e2440001 	sub	r0, r4, #1
    43e4:	e3510020 	cmp	r1, #32
    43e8:	1a00000d 	bne	4424 <f_setlabel+0xb4>
    43ec:	e1a04000 	mov	r4, r0
    43f0:	e3540000 	cmp	r4, #0
    43f4:	1afffff8 	bne	43dc <f_setlabel+0x6c>
    43f8:	e3a03000 	mov	r3, #0
    43fc:	e28d0024 	add	r0, sp, #36	; 0x24
    4400:	e1a01003 	mov	r1, r3
    4404:	e58d302c 	str	r3, [sp, #44]	; 0x2c
    4408:	ebfff269 	bl	db4 <dir_sdi>
    440c:	e2505000 	subs	r5, r0, #0
    4410:	0a00003c 	beq	4508 <f_setlabel+0x198>
    4414:	e1a00005 	mov	r0, r5
    4418:	e28dd058 	add	sp, sp, #88	; 0x58
    441c:	e8bd8070 	pop	{r4, r5, r6, pc}
    4420:	e1a04000 	mov	r4, r0
    4424:	e3a03000 	mov	r3, #0
    4428:	e1a05003 	mov	r5, r3
    442c:	e5cd300c 	strb	r3, [sp, #12]
    4430:	e3a01001 	mov	r1, #1
    4434:	e7d20003 	ldrb	r0, [r2, r3]
    4438:	e0836001 	add	r6, r3, r1
    443c:	ebfffffe 	bl	0 <ff_convert>
    4440:	ebfffffe 	bl	0 <ff_wtoupper>
    4444:	e3a01000 	mov	r1, #0
    4448:	ebfffffe 	bl	0 <ff_convert>
    444c:	e3500000 	cmp	r0, #0
    4450:	0a000025 	beq	44ec <f_setlabel+0x17c>
    4454:	e3500022 	cmp	r0, #34	; 0x22
    4458:	0a000023 	beq	44ec <f_setlabel+0x17c>
    445c:	e3a0302a 	mov	r3, #42	; 0x2a
    4460:	e59f2148 	ldr	r2, [pc, #328]	; 45b0 <f_setlabel+0x240>
    4464:	e1530000 	cmp	r3, r0
    4468:	0a00001f 	beq	44ec <f_setlabel+0x17c>
    446c:	e5f23001 	ldrb	r3, [r2, #1]!
    4470:	e3530000 	cmp	r3, #0
    4474:	1afffffa 	bne	4464 <f_setlabel+0xf4>
    4478:	e35000ff 	cmp	r0, #255	; 0xff
    447c:	9a00001e 	bls	44fc <f_setlabel+0x18c>
    4480:	e3550009 	cmp	r5, #9
    4484:	8a000018 	bhi	44ec <f_setlabel+0x17c>
    4488:	e28d3058 	add	r3, sp, #88	; 0x58
    448c:	e0833005 	add	r3, r3, r5
    4490:	e1a02420 	lsr	r2, r0, #8
    4494:	e543204c 	strb	r2, [r3, #-76]	; 0xffffffb4
    4498:	e2855001 	add	r5, r5, #1
    449c:	e28d3058 	add	r3, sp, #88	; 0x58
    44a0:	e0833005 	add	r3, r3, r5
    44a4:	e1560004 	cmp	r6, r4
    44a8:	e543004c 	strb	r0, [r3, #-76]	; 0xffffffb4
    44ac:	e2855001 	add	r5, r5, #1
    44b0:	31a03006 	movcc	r3, r6
    44b4:	359d2004 	ldrcc	r2, [sp, #4]
    44b8:	3affffdc 	bcc	4430 <f_setlabel+0xc0>
    44bc:	e355000b 	cmp	r5, #11
    44c0:	128d300c 	addne	r3, sp, #12
    44c4:	10835005 	addne	r5, r3, r5
    44c8:	13a02020 	movne	r2, #32
    44cc:	128d3017 	addne	r3, sp, #23
    44d0:	0a000002 	beq	44e0 <f_setlabel+0x170>
    44d4:	e4c52001 	strb	r2, [r5], #1
    44d8:	e1530005 	cmp	r3, r5
    44dc:	1afffffc 	bne	44d4 <f_setlabel+0x164>
    44e0:	e5dd300c 	ldrb	r3, [sp, #12]
    44e4:	e35300e5 	cmp	r3, #229	; 0xe5
    44e8:	1affffc2 	bne	43f8 <f_setlabel+0x88>
    44ec:	e3a05006 	mov	r5, #6
    44f0:	e1a00005 	mov	r0, r5
    44f4:	e28dd058 	add	sp, sp, #88	; 0x58
    44f8:	e8bd8070 	pop	{r4, r5, r6, pc}
    44fc:	e355000a 	cmp	r5, #10
    4500:	9affffe5 	bls	449c <f_setlabel+0x12c>
    4504:	eafffff8 	b	44ec <f_setlabel+0x17c>
    4508:	e3a01001 	mov	r1, #1
    450c:	e28d0024 	add	r0, sp, #36	; 0x24
    4510:	ebfff3ae 	bl	13d0 <dir_read>
    4514:	e3500000 	cmp	r0, #0
    4518:	1a00000a 	bne	4548 <f_setlabel+0x1d8>
    451c:	e3540000 	cmp	r4, #0
    4520:	03e0301a 	mvneq	r3, #26
    4524:	e59d0040 	ldr	r0, [sp, #64]	; 0x40
    4528:	05c03000 	strbeq	r3, [r0]
    452c:	1a00001b 	bne	45a0 <f_setlabel+0x230>
    4530:	e3a03001 	mov	r3, #1
    4534:	e59d0008 	ldr	r0, [sp, #8]
    4538:	e5c03003 	strb	r3, [r0, #3]
    453c:	ebffef67 	bl	2e0 <sync_fs>
    4540:	e1a05000 	mov	r5, r0
    4544:	eaffffb2 	b	4414 <f_setlabel+0xa4>
    4548:	e3500004 	cmp	r0, #4
    454c:	1afffffb 	bne	4540 <f_setlabel+0x1d0>
    4550:	e3540000 	cmp	r4, #0
    4554:	0affffae 	beq	4414 <f_setlabel+0xa4>
    4558:	e28d0024 	add	r0, sp, #36	; 0x24
    455c:	e3a01001 	mov	r1, #1
    4560:	ebfff374 	bl	1338 <dir_alloc>
    4564:	e2505000 	subs	r5, r0, #0
    4568:	1affffa9 	bne	4414 <f_setlabel+0xa4>
    456c:	e59d3040 	ldr	r3, [sp, #64]	; 0x40
    4570:	e2832020 	add	r2, r3, #32
    4574:	e4c35001 	strb	r5, [r3], #1
    4578:	e1520003 	cmp	r2, r3
    457c:	1afffffc 	bne	4574 <f_setlabel+0x204>
    4580:	e3a01008 	mov	r1, #8
    4584:	e59d3040 	ldr	r3, [sp, #64]	; 0x40
    4588:	e3a0200b 	mov	r2, #11
    458c:	e5c3100b 	strb	r1, [r3, #11]
    4590:	e59d0040 	ldr	r0, [sp, #64]	; 0x40
    4594:	e28d100c 	add	r1, sp, #12
    4598:	ebffef27 	bl	23c <mem_cpy.part.0>
    459c:	eaffffe3 	b	4530 <f_setlabel+0x1c0>
    45a0:	e3a0200b 	mov	r2, #11
    45a4:	e28d100c 	add	r1, sp, #12
    45a8:	ebffef23 	bl	23c <mem_cpy.part.0>
    45ac:	eaffffdf 	b	4530 <f_setlabel+0x1c0>
    45b0:	00000091 	muleq	r0, r1, r0

000045b4 <f_gets>:
    45b4:	e92d41f0 	push	{r4, r5, r6, r7, r8, lr}
    45b8:	e1a08000 	mov	r8, r0
    45bc:	e1a07002 	mov	r7, r2
    45c0:	e1a05000 	mov	r5, r0
    45c4:	e3a04000 	mov	r4, #0
    45c8:	e24dd008 	sub	sp, sp, #8
    45cc:	e2416001 	sub	r6, r1, #1
    45d0:	e1540006 	cmp	r4, r6
    45d4:	aa000013 	bge	4628 <f_gets+0x74>
    45d8:	e28d3004 	add	r3, sp, #4
    45dc:	e3a02001 	mov	r2, #1
    45e0:	e1a0100d 	mov	r1, sp
    45e4:	e1a00007 	mov	r0, r7
    45e8:	ebfffffe 	bl	28e0 <f_read>
    45ec:	e59d3004 	ldr	r3, [sp, #4]
    45f0:	e3530001 	cmp	r3, #1
    45f4:	1a00000b 	bne	4628 <f_gets+0x74>
    45f8:	e5dd3000 	ldrb	r3, [sp]
    45fc:	e353000d 	cmp	r3, #13
    4600:	0afffff2 	beq	45d0 <f_gets+0x1c>
    4604:	e353000a 	cmp	r3, #10
    4608:	e4c53001 	strb	r3, [r5], #1
    460c:	e2844001 	add	r4, r4, #1
    4610:	1affffee 	bne	45d0 <f_gets+0x1c>
    4614:	e3a03000 	mov	r3, #0
    4618:	e1a00008 	mov	r0, r8
    461c:	e5c53000 	strb	r3, [r5]
    4620:	e28dd008 	add	sp, sp, #8
    4624:	e8bd81f0 	pop	{r4, r5, r6, r7, r8, pc}
    4628:	e3a03000 	mov	r3, #0
    462c:	e1540003 	cmp	r4, r3
    4630:	01a08003 	moveq	r8, r3
    4634:	e1a00008 	mov	r0, r8
    4638:	e5c53000 	strb	r3, [r5]
    463c:	e28dd008 	add	sp, sp, #8
    4640:	e8bd81f0 	pop	{r4, r5, r6, r7, r8, pc}

00004644 <f_putc>:
    4644:	e3a03000 	mov	r3, #0
    4648:	e52de004 	push	{lr}		; (str lr, [sp, #-4]!)
    464c:	e24dd054 	sub	sp, sp, #84	; 0x54
    4650:	e58d1004 	str	r1, [sp, #4]
    4654:	e1a01000 	mov	r1, r0
    4658:	e28d0004 	add	r0, sp, #4
    465c:	e58d3008 	str	r3, [sp, #8]
    4660:	e58d300c 	str	r3, [sp, #12]
    4664:	ebfff9e2 	bl	2df4 <putc_bfd>
    4668:	e28d0004 	add	r0, sp, #4
    466c:	ebfffa00 	bl	2e74 <putc_flush>
    4670:	e28dd054 	add	sp, sp, #84	; 0x54
    4674:	e49df004 	pop	{pc}		; (ldr pc, [sp], #4)

00004678 <f_puts>:
    4678:	e3a02000 	mov	r2, #0
    467c:	e92d4030 	push	{r4, r5, lr}
    4680:	e5d03000 	ldrb	r3, [r0]
    4684:	e24dd054 	sub	sp, sp, #84	; 0x54
    4688:	e1530002 	cmp	r3, r2
    468c:	e58d1004 	str	r1, [sp, #4]
    4690:	e58d2008 	str	r2, [sp, #8]
    4694:	e58d200c 	str	r2, [sp, #12]
    4698:	028d5004 	addeq	r5, sp, #4
    469c:	0a000007 	beq	46c0 <f_puts+0x48>
    46a0:	e1a04000 	mov	r4, r0
    46a4:	e28d5004 	add	r5, sp, #4
    46a8:	e1a01003 	mov	r1, r3
    46ac:	e1a00005 	mov	r0, r5
    46b0:	ebfff9cf 	bl	2df4 <putc_bfd>
    46b4:	e5f43001 	ldrb	r3, [r4, #1]!
    46b8:	e3530000 	cmp	r3, #0
    46bc:	1afffff9 	bne	46a8 <f_puts+0x30>
    46c0:	e1a00005 	mov	r0, r5
    46c4:	ebfff9ea 	bl	2e74 <putc_flush>
    46c8:	e28dd054 	add	sp, sp, #84	; 0x54
    46cc:	e8bd8030 	pop	{r4, r5, pc}

000046d0 <f_printf>:
    46d0:	e92d000e 	push	{r1, r2, r3}
    46d4:	e3a03000 	mov	r3, #0
    46d8:	e92d4ff0 	push	{r4, r5, r6, r7, r8, r9, sl, fp, lr}
    46dc:	e24dd078 	sub	sp, sp, #120	; 0x78
    46e0:	e28d20a0 	add	r2, sp, #160	; 0xa0
    46e4:	e59d709c 	ldr	r7, [sp, #156]	; 0x9c
    46e8:	e58d002c 	str	r0, [sp, #44]	; 0x2c
    46ec:	e58d3030 	str	r3, [sp, #48]	; 0x30
    46f0:	e58d3034 	str	r3, [sp, #52]	; 0x34
    46f4:	e58d2008 	str	r2, [sp, #8]
    46f8:	e5d71000 	ldrb	r1, [r7]
    46fc:	e3510000 	cmp	r1, #0
    4700:	0a000007 	beq	4724 <f_printf+0x54>
    4704:	e3510025 	cmp	r1, #37	; 0x25
    4708:	0a00000b 	beq	473c <f_printf+0x6c>
    470c:	e28d002c 	add	r0, sp, #44	; 0x2c
    4710:	e2877001 	add	r7, r7, #1
    4714:	ebfff9b6 	bl	2df4 <putc_bfd>
    4718:	e5d71000 	ldrb	r1, [r7]
    471c:	e3510000 	cmp	r1, #0
    4720:	1afffff7 	bne	4704 <f_printf+0x34>
    4724:	e28d002c 	add	r0, sp, #44	; 0x2c
    4728:	ebfff9d1 	bl	2e74 <putc_flush>
    472c:	e28dd078 	add	sp, sp, #120	; 0x78
    4730:	e8bd4ff0 	pop	{r4, r5, r6, r7, r8, r9, sl, fp, lr}
    4734:	e28dd00c 	add	sp, sp, #12
    4738:	e12fff1e 	bx	lr
    473c:	e5d71001 	ldrb	r1, [r7, #1]
    4740:	e3510030 	cmp	r1, #48	; 0x30
    4744:	0a0000de 	beq	4ac4 <f_printf+0x3f4>
    4748:	e351002d 	cmp	r1, #45	; 0x2d
    474c:	13a03000 	movne	r3, #0
    4750:	12877002 	addne	r7, r7, #2
    4754:	158d3000 	strne	r3, [sp]
    4758:	03a03002 	moveq	r3, #2
    475c:	05d71002 	ldrbeq	r1, [r7, #2]
    4760:	058d3000 	streq	r3, [sp]
    4764:	02877003 	addeq	r7, r7, #3
    4768:	e2413030 	sub	r3, r1, #48	; 0x30
    476c:	e3530009 	cmp	r3, #9
    4770:	e3a04000 	mov	r4, #0
    4774:	8a000006 	bhi	4794 <f_printf+0xc4>
    4778:	e0844104 	add	r4, r4, r4, lsl #2
    477c:	e0814084 	add	r4, r1, r4, lsl #1
    4780:	e4d71001 	ldrb	r1, [r7], #1
    4784:	e2444030 	sub	r4, r4, #48	; 0x30
    4788:	e2413030 	sub	r3, r1, #48	; 0x30
    478c:	e3530009 	cmp	r3, #9
    4790:	9afffff8 	bls	4778 <f_printf+0xa8>
    4794:	e20130df 	and	r3, r1, #223	; 0xdf
    4798:	e353004c 	cmp	r3, #76	; 0x4c
    479c:	059d3000 	ldreq	r3, [sp]
    47a0:	04d71001 	ldrbeq	r1, [r7], #1
    47a4:	03833004 	orreq	r3, r3, #4
    47a8:	058d3000 	streq	r3, [sp]
    47ac:	e3510000 	cmp	r1, #0
    47b0:	0affffdb 	beq	4724 <f_printf+0x54>
    47b4:	e2413061 	sub	r3, r1, #97	; 0x61
    47b8:	e3530019 	cmp	r3, #25
    47bc:	81a03001 	movhi	r3, r1
    47c0:	92413020 	subls	r3, r1, #32
    47c4:	96ef3073 	uxtbls	r3, r3
    47c8:	e2432042 	sub	r2, r3, #66	; 0x42
    47cc:	e3520016 	cmp	r2, #22
    47d0:	979ff102 	ldrls	pc, [pc, r2, lsl #2]
    47d4:	ea0000b7 	b	4ab8 <f_printf+0x3e8>
    47d8:	00004834 	andeq	r4, r0, r4, lsr r8
    47dc:	00004a40 	andeq	r4, r0, r0, asr #20
    47e0:	00004a10 	andeq	r4, r0, r0, lsl sl
    47e4:	00004ab8 			; <UNDEFINED> instruction: 0x00004ab8
    47e8:	00004ab8 			; <UNDEFINED> instruction: 0x00004ab8
    47ec:	00004ab8 			; <UNDEFINED> instruction: 0x00004ab8
    47f0:	00004ab8 			; <UNDEFINED> instruction: 0x00004ab8
    47f4:	00004ab8 			; <UNDEFINED> instruction: 0x00004ab8
    47f8:	00004ab8 			; <UNDEFINED> instruction: 0x00004ab8
    47fc:	00004ab8 			; <UNDEFINED> instruction: 0x00004ab8
    4800:	00004ab8 			; <UNDEFINED> instruction: 0x00004ab8
    4804:	00004ab8 			; <UNDEFINED> instruction: 0x00004ab8
    4808:	00004ab8 			; <UNDEFINED> instruction: 0x00004ab8
    480c:	00004a5c 	andeq	r4, r0, ip, asr sl
    4810:	00004ab8 			; <UNDEFINED> instruction: 0x00004ab8
    4814:	00004ab8 			; <UNDEFINED> instruction: 0x00004ab8
    4818:	00004ab8 			; <UNDEFINED> instruction: 0x00004ab8
    481c:	00004990 	muleq	r0, r0, r9
    4820:	00004ab8 			; <UNDEFINED> instruction: 0x00004ab8
    4824:	00004a10 	andeq	r4, r0, r0, lsl sl
    4828:	00004ab8 			; <UNDEFINED> instruction: 0x00004ab8
    482c:	00004ab8 			; <UNDEFINED> instruction: 0x00004ab8
    4830:	00004ab0 			; <UNDEFINED> instruction: 0x00004ab0
    4834:	e3a09002 	mov	r9, #2
    4838:	e59d0000 	ldr	r0, [sp]
    483c:	e59d2008 	ldr	r2, [sp, #8]
    4840:	e3100004 	tst	r0, #4
    4844:	e282c004 	add	ip, r2, #4
    4848:	1a000089 	bne	4a74 <f_printf+0x3a4>
    484c:	e3a03000 	mov	r3, #0
    4850:	e5928000 	ldr	r8, [r2]
    4854:	e58dc008 	str	ip, [sp, #8]
    4858:	e58d3004 	str	r3, [sp, #4]
    485c:	e3510078 	cmp	r1, #120	; 0x78
    4860:	03a03027 	moveq	r3, #39	; 0x27
    4864:	13a03007 	movne	r3, #7
    4868:	e1a05009 	mov	r5, r9
    486c:	e28da00b 	add	sl, sp, #11
    4870:	e3a0b000 	mov	fp, #0
    4874:	e1a09003 	mov	r9, r3
    4878:	ea000000 	b	4880 <f_printf+0x1b0>
    487c:	e1a0b006 	mov	fp, r6
    4880:	e1a00008 	mov	r0, r8
    4884:	e1a01005 	mov	r1, r5
    4888:	ebfffffe 	bl	0 <__aeabi_uidivmod>
    488c:	e3510009 	cmp	r1, #9
    4890:	e6ef1071 	uxtb	r1, r1
    4894:	80891001 	addhi	r1, r9, r1
    4898:	86ef1071 	uxtbhi	r1, r1
    489c:	e28b6001 	add	r6, fp, #1
    48a0:	e1580005 	cmp	r8, r5
    48a4:	33a08000 	movcc	r8, #0
    48a8:	23a08001 	movcs	r8, #1
    48ac:	e356001f 	cmp	r6, #31
    48b0:	83a08000 	movhi	r8, #0
    48b4:	e2811030 	add	r1, r1, #48	; 0x30
    48b8:	e6ef1071 	uxtb	r1, r1
    48bc:	e3580000 	cmp	r8, #0
    48c0:	e5ea1001 	strb	r1, [sl, #1]!
    48c4:	e1a08000 	mov	r8, r0
    48c8:	1affffeb 	bne	487c <f_printf+0x1ac>
    48cc:	e59d3004 	ldr	r3, [sp, #4]
    48d0:	e1a05001 	mov	r5, r1
    48d4:	e3530000 	cmp	r3, #0
    48d8:	0a000005 	beq	48f4 <f_printf+0x224>
    48dc:	e28d3078 	add	r3, sp, #120	; 0x78
    48e0:	e0836006 	add	r6, r3, r6
    48e4:	e3a0302d 	mov	r3, #45	; 0x2d
    48e8:	e3a0502d 	mov	r5, #45	; 0x2d
    48ec:	e546306c 	strb	r3, [r6, #-108]	; 0xffffff94
    48f0:	e28b6002 	add	r6, fp, #2
    48f4:	e59d3000 	ldr	r3, [sp]
    48f8:	e2868001 	add	r8, r6, #1
    48fc:	e3130001 	tst	r3, #1
    4900:	13a09030 	movne	r9, #48	; 0x30
    4904:	03a09020 	moveq	r9, #32
    4908:	e3130002 	tst	r3, #2
    490c:	1a000083 	bne	4b20 <f_printf+0x450>
    4910:	e1560004 	cmp	r6, r4
    4914:	21a0a008 	movcs	sl, r8
    4918:	22868002 	addcs	r8, r6, #2
    491c:	3a000001 	bcc	4928 <f_printf+0x258>
    4920:	ea000007 	b	4944 <f_printf+0x274>
    4924:	e1a0800a 	mov	r8, sl
    4928:	e1a01009 	mov	r1, r9
    492c:	e28d002c 	add	r0, sp, #44	; 0x2c
    4930:	ebfff92f 	bl	2df4 <putc_bfd>
    4934:	e1580004 	cmp	r8, r4
    4938:	e288a001 	add	sl, r8, #1
    493c:	1afffff8 	bne	4924 <f_printf+0x254>
    4940:	e2888002 	add	r8, r8, #2
    4944:	e2466001 	sub	r6, r6, #1
    4948:	e28db00c 	add	fp, sp, #12
    494c:	e08b6006 	add	r6, fp, r6
    4950:	e1a01005 	mov	r1, r5
    4954:	ea000000 	b	495c <f_printf+0x28c>
    4958:	e5761001 	ldrb	r1, [r6, #-1]!
    495c:	e28d002c 	add	r0, sp, #44	; 0x2c
    4960:	ebfff923 	bl	2df4 <putc_bfd>
    4964:	e156000b 	cmp	r6, fp
    4968:	1afffffa 	bne	4958 <f_printf+0x288>
    496c:	e15a0004 	cmp	sl, r4
    4970:	2affff60 	bcs	46f8 <f_printf+0x28>
    4974:	e1a01009 	mov	r1, r9
    4978:	e28d002c 	add	r0, sp, #44	; 0x2c
    497c:	ebfff91c 	bl	2df4 <putc_bfd>
    4980:	e1540008 	cmp	r4, r8
    4984:	e2888001 	add	r8, r8, #1
    4988:	8afffff9 	bhi	4974 <f_printf+0x2a4>
    498c:	eaffff59 	b	46f8 <f_printf+0x28>
    4990:	e59d3008 	ldr	r3, [sp, #8]
    4994:	e59d2000 	ldr	r2, [sp]
    4998:	e5936000 	ldr	r6, [r3]
    499c:	e2833004 	add	r3, r3, #4
    49a0:	e5d61000 	ldrb	r1, [r6]
    49a4:	e202a002 	and	sl, r2, #2
    49a8:	e3510000 	cmp	r1, #0
    49ac:	e58d3008 	str	r3, [sp, #8]
    49b0:	0a00005c 	beq	4b28 <f_printf+0x458>
    49b4:	e1a03006 	mov	r3, r6
    49b8:	e2660001 	rsb	r0, r6, #1
    49bc:	e0808003 	add	r8, r0, r3
    49c0:	e5f32001 	ldrb	r2, [r3, #1]!
    49c4:	e3520000 	cmp	r2, #0
    49c8:	1afffffb 	bne	49bc <f_printf+0x2ec>
    49cc:	e35a0000 	cmp	sl, #0
    49d0:	e2885001 	add	r5, r8, #1
    49d4:	0a000041 	beq	4ae0 <f_printf+0x410>
    49d8:	e28d002c 	add	r0, sp, #44	; 0x2c
    49dc:	ebfff904 	bl	2df4 <putc_bfd>
    49e0:	e5f61001 	ldrb	r1, [r6, #1]!
    49e4:	e3510000 	cmp	r1, #0
    49e8:	1afffffa 	bne	49d8 <f_printf+0x308>
    49ec:	e1580004 	cmp	r8, r4
    49f0:	2affff40 	bcs	46f8 <f_printf+0x28>
    49f4:	e3a01020 	mov	r1, #32
    49f8:	e28d002c 	add	r0, sp, #44	; 0x2c
    49fc:	ebfff8fc 	bl	2df4 <putc_bfd>
    4a00:	e1540005 	cmp	r4, r5
    4a04:	e2855001 	add	r5, r5, #1
    4a08:	8afffff9 	bhi	49f4 <f_printf+0x324>
    4a0c:	eaffff39 	b	46f8 <f_printf+0x28>
    4a10:	e59d0000 	ldr	r0, [sp]
    4a14:	e59d2008 	ldr	r2, [sp, #8]
    4a18:	e3100004 	tst	r0, #4
    4a1c:	e282c004 	add	ip, r2, #4
    4a20:	1a00002c 	bne	4ad8 <f_printf+0x408>
    4a24:	e3530044 	cmp	r3, #68	; 0x44
    4a28:	1a00004a 	bne	4b58 <f_printf+0x488>
    4a2c:	e5920000 	ldr	r0, [r2]
    4a30:	e58dc008 	str	ip, [sp, #8]
    4a34:	e1a08000 	mov	r8, r0
    4a38:	e3a0900a 	mov	r9, #10
    4a3c:	ea00000f 	b	4a80 <f_printf+0x3b0>
    4a40:	e59d3008 	ldr	r3, [sp, #8]
    4a44:	e28d002c 	add	r0, sp, #44	; 0x2c
    4a48:	e2832004 	add	r2, r3, #4
    4a4c:	e5d31000 	ldrb	r1, [r3]
    4a50:	e58d2008 	str	r2, [sp, #8]
    4a54:	ebfff8e6 	bl	2df4 <putc_bfd>
    4a58:	eaffff26 	b	46f8 <f_printf+0x28>
    4a5c:	e59d0000 	ldr	r0, [sp]
    4a60:	e59d2008 	ldr	r2, [sp, #8]
    4a64:	e3100004 	tst	r0, #4
    4a68:	e3a09008 	mov	r9, #8
    4a6c:	e282c004 	add	ip, r2, #4
    4a70:	0affff75 	beq	484c <f_printf+0x17c>
    4a74:	e5920000 	ldr	r0, [r2]
    4a78:	e58dc008 	str	ip, [sp, #8]
    4a7c:	e1a08000 	mov	r8, r0
    4a80:	e1a02fa0 	lsr	r2, r0, #31
    4a84:	e3530044 	cmp	r3, #68	; 0x44
    4a88:	13a03000 	movne	r3, #0
    4a8c:	02023001 	andeq	r3, r2, #1
    4a90:	e3530000 	cmp	r3, #0
    4a94:	159d3000 	ldrne	r3, [sp]
    4a98:	12608000 	rsbne	r8, r0, #0
    4a9c:	13833008 	orrne	r3, r3, #8
    4aa0:	158d3000 	strne	r3, [sp]
    4aa4:	13a03008 	movne	r3, #8
    4aa8:	e58d3004 	str	r3, [sp, #4]
    4aac:	eaffff6a 	b	485c <f_printf+0x18c>
    4ab0:	e3a09010 	mov	r9, #16
    4ab4:	eaffff5f 	b	4838 <f_printf+0x168>
    4ab8:	e28d002c 	add	r0, sp, #44	; 0x2c
    4abc:	ebfff8cc 	bl	2df4 <putc_bfd>
    4ac0:	eaffff0c 	b	46f8 <f_printf+0x28>
    4ac4:	e3a03001 	mov	r3, #1
    4ac8:	e5d71002 	ldrb	r1, [r7, #2]
    4acc:	e58d3000 	str	r3, [sp]
    4ad0:	e2877003 	add	r7, r7, #3
    4ad4:	eaffff23 	b	4768 <f_printf+0x98>
    4ad8:	e3a0900a 	mov	r9, #10
    4adc:	eaffffe4 	b	4a74 <f_printf+0x3a4>
    4ae0:	e1580004 	cmp	r8, r4
    4ae4:	e2883002 	add	r3, r8, #2
    4ae8:	3a000001 	bcc	4af4 <f_printf+0x424>
    4aec:	ea000012 	b	4b3c <f_printf+0x46c>
    4af0:	e1a05008 	mov	r5, r8
    4af4:	e3a01020 	mov	r1, #32
    4af8:	e28d002c 	add	r0, sp, #44	; 0x2c
    4afc:	ebfff8bc 	bl	2df4 <putc_bfd>
    4b00:	e1540005 	cmp	r4, r5
    4b04:	e2858001 	add	r8, r5, #1
    4b08:	8afffff8 	bhi	4af0 <f_printf+0x420>
    4b0c:	e5d61000 	ldrb	r1, [r6]
    4b10:	e2855002 	add	r5, r5, #2
    4b14:	e3510000 	cmp	r1, #0
    4b18:	1affffae 	bne	49d8 <f_printf+0x308>
    4b1c:	eaffffb2 	b	49ec <f_printf+0x31c>
    4b20:	e1a0a006 	mov	sl, r6
    4b24:	eaffff86 	b	4944 <f_printf+0x274>
    4b28:	e35a0000 	cmp	sl, #0
    4b2c:	0a000005 	beq	4b48 <f_printf+0x478>
    4b30:	e1a08001 	mov	r8, r1
    4b34:	e3a05001 	mov	r5, #1
    4b38:	eaffffab 	b	49ec <f_printf+0x31c>
    4b3c:	e1a08005 	mov	r8, r5
    4b40:	e1a05003 	mov	r5, r3
    4b44:	eaffffa3 	b	49d8 <f_printf+0x308>
    4b48:	e3540000 	cmp	r4, #0
    4b4c:	13a05001 	movne	r5, #1
    4b50:	1affffe7 	bne	4af4 <f_printf+0x424>
    4b54:	eafffee7 	b	46f8 <f_printf+0x28>
    4b58:	e3a0900a 	mov	r9, #10
    4b5c:	eaffff3a 	b	484c <f_printf+0x17c>

Disassembly of section .bss:

00000000 <CurrVol>:
   0:	00000000 	andeq	r0, r0, r0

00000004 <FatFs>:
	...

00000014 <Fsid>:
  14:	00000000 	andeq	r0, r0, r0

00000018 <LfnBuf>:
	...

Disassembly of section .rodata:

00000000 <ExCvt>:
   0:	41455543 	cmpmi	r5, r3, asr #10
   4:	43414141 	movtmi	r4, #4417	; 0x1141
   8:	49454545 	stmdbmi	r5, {r0, r2, r6, r8, sl, lr}^
   c:	41414949 	cmpmi	r1, r9, asr #18
  10:	4f929245 	svcmi	0x00929245
  14:	55554f4f 	ldrbpl	r4, [r5, #-3919]	; 0xfffff0b1
  18:	4f554f59 	svcmi	0x00554f59
  1c:	9f9e4f9c 	svcls	0x009e4f9c
  20:	554f4941 	strbpl	r4, [pc, #-2369]	; fffff6e7 <f_printf+0xffffb017>
  24:	a7a6a5a5 	strge	sl, [r6, r5, lsr #11]!
  28:	abaaa9a8 	blge	feaaa6d0 <f_printf+0xfeaa6000>
  2c:	afaeadac 	svcge	0x00aeadac
  30:	b3b2b1b0 			; <UNDEFINED> instruction: 0xb3b2b1b0
  34:	414141b4 	strhmi	r4, [r1, #-20]	; 0xffffffec
  38:	bbbab9b8 	bllt	feeae720 <f_printf+0xfeeaa050>
  3c:	bfbebdbc 	svclt	0x00bebdbc
  40:	c3c2c1c0 	bicgt	ip, r2, #192, 2	; 0x30
  44:	4141c5c4 	smlalbtmi	ip, r1, r4, r5
  48:	cbcac9c8 	blgt	ff2b2770 <f_printf+0xff2ae0a0>
  4c:	cfcecdcc 	svcgt	0x00cecdcc
  50:	4545d1d1 	strbmi	sp, [r5, #-465]	; 0xfffffe2f
  54:	49494945 	stmdbmi	r9, {r0, r2, r6, r8, fp, lr}^
  58:	dbdad949 	blle	ff6b6584 <f_printf+0xff6b1eb4>
  5c:	df49dddc 	svcle	0x0049dddc
  60:	4f4fe14f 	svcmi	0x004fe14f
  64:	e8e64f4f 	stmia	r6!, {r0, r1, r2, r3, r6, r8, r9, sl, fp, lr}^
  68:	555555e8 	ldrbpl	r5, [r5, #-1512]	; 0xfffffa18
  6c:	efee5959 	svc	0x00ee5959
  70:	f3f2f1f0 	vsra.u64	<illegal reg q15.5>, q8, #14
  74:	f7f6f5f4 			; <UNDEFINED> instruction: 0xf7f6f5f4
  78:	fbfaf9f8 	blx	ffebe862 <f_printf+0xffeba192>
  7c:	fffefdfc 			; <UNDEFINED> instruction: 0xfffefdfc

00000080 <LfnOfs>:
  80:	07050301 	streq	r0, [r5, -r1, lsl #6]
  84:	12100e09 	andsne	r0, r0, #9, 28	; 0x90
  88:	1c181614 	ldcne	6, cr1, [r8], {20}
  8c:	0000001e 	andeq	r0, r0, lr, lsl r0

00000090 <badchr.5868>:
  90:	2c2b2a22 			; <UNDEFINED> instruction: 0x2c2b2a22
  94:	3c3b3a2e 			; <UNDEFINED> instruction: 0x3c3b3a2e
  98:	5b3f3e3d 	blpl	fcf994 <f_printf+0xfcb2c4>
  9c:	007f7c5d 	rsbseq	r7, pc, sp, asr ip	; <UNPREDICTABLE>

Disassembly of section .rodata.str1.4:

00000000 <.LC0>:
   0:	3c3a2a22 			; <UNDEFINED> instruction: 0x3c3a2a22
   4:	7f7c3f3e 	svcvc	0x007c3f3e
   8:	00000000 	andeq	r0, r0, r0

0000000c <.LC1>:
   c:	3d3b2c2b 	ldccc	12, cr2, [fp, #-172]!	; 0xffffff54
  10:	Address 0x0000000000000010 is out of bounds.


Disassembly of section .comment:

00000000 <.comment>:
   0:	43434700 	movtmi	r4, #14080	; 0x3700
   4:	4728203a 			; <UNDEFINED> instruction: 0x4728203a
   8:	5420554e 	strtpl	r5, [r0], #-1358	; 0xfffffab2
   c:	736c6f6f 	cmnvc	ip, #444	; 0x1bc
  10:	726f6620 	rsbvc	r6, pc, #32, 12	; 0x2000000
  14:	6d724120 	ldfvse	f4, [r2, #-128]!	; 0xffffff80
  18:	626d4520 	rsbvs	r4, sp, #32, 10	; 0x8000000
  1c:	65646465 	strbvs	r6, [r4, #-1125]!	; 0xfffffb9b
  20:	72502064 	subsvc	r2, r0, #100	; 0x64
  24:	7365636f 	cmnvc	r5, #-1140850687	; 0xbc000001
  28:	73726f73 	cmnvc	r2, #460	; 0x1cc
  2c:	322d3820 	eorcc	r3, sp, #32, 16	; 0x200000
  30:	2d393130 	ldfcss	f3, [r9, #-192]!	; 0xffffff40
  34:	752d3371 	strvc	r3, [sp, #-881]!	; 0xfffffc8f
  38:	74616470 	strbtvc	r6, [r1], #-1136	; 0xfffffb90
  3c:	38202965 	stmdacc	r0!, {r0, r2, r5, r6, r8, fp, sp}
  40:	312e332e 			; <UNDEFINED> instruction: 0x312e332e
  44:	31303220 	teqcc	r0, r0, lsr #4
  48:	30373039 	eorscc	r3, r7, r9, lsr r0
  4c:	72282033 	eorvc	r2, r8, #51	; 0x33
  50:	61656c65 	cmnvs	r5, r5, ror #24
  54:	20296573 	eorcs	r6, r9, r3, ror r5
  58:	6363675b 	cmnvs	r3, #23855104	; 0x16c0000
  5c:	622d382d 	eorvs	r3, sp, #2949120	; 0x2d0000
  60:	636e6172 	cmnvs	lr, #-2147483620	; 0x8000001c
  64:	65722068 	ldrbvs	r2, [r2, #-104]!	; 0xffffff98
  68:	69736976 	ldmdbvs	r3!, {r1, r2, r4, r5, r6, r8, fp, sp, lr}^
  6c:	32206e6f 	eorcc	r6, r0, #1776	; 0x6f0
  70:	32303337 	eorscc	r3, r0, #-603979776	; 0xdc000000
  74:	Address 0x0000000000000074 is out of bounds.


Disassembly of section .ARM.attributes:

00000000 <.ARM.attributes>:
   0:	00003241 	andeq	r3, r0, r1, asr #4
   4:	61656100 	cmnvs	r5, r0, lsl #2
   8:	01006962 	tsteq	r0, r2, ror #18
   c:	00000028 	andeq	r0, r0, r8, lsr #32
  10:	4b5a3605 	blmi	168d82c <f_printf+0x168915c>
  14:	08070600 	stmdaeq	r7, {r9, sl}
  18:	0a010901 	beq	42424 <f_printf+0x3dd54>
  1c:	14041202 	strne	r1, [r4], #-514	; 0xfffffdfe
  20:	17011501 	strne	r1, [r1, -r1, lsl #10]
  24:	19011803 	stmdbne	r1, {r0, r1, fp, ip}
  28:	1c011a01 			; <UNDEFINED> instruction: 0x1c011a01
  2c:	22021e01 	andcs	r1, r2, #1, 28
  30:	Address 0x0000000000000030 is out of bounds.


ccsbcs.o:     file format elf32-littlearm


Disassembly of section .text:

00000000 <ff_convert>:
   0:	e350007f 	cmp	r0, #127	; 0x7f
   4:	912fff1e 	bxls	lr
   8:	e3510000 	cmp	r1, #0
   c:	1a00000c 	bne	44 <ff_convert+0x44>
  10:	e59f2050 	ldr	r2, [pc, #80]	; 68 <ff_convert+0x68>
  14:	e3a030c7 	mov	r3, #199	; 0xc7
  18:	ea000002 	b	28 <ff_convert+0x28>
  1c:	e3510080 	cmp	r1, #128	; 0x80
  20:	0a00000e 	beq	60 <ff_convert+0x60>
  24:	e0d230b2 	ldrh	r3, [r2], #2
  28:	e1500003 	cmp	r0, r3
  2c:	e6ff3071 	uxth	r3, r1
  30:	e2811001 	add	r1, r1, #1
  34:	1afffff8 	bne	1c <ff_convert+0x1c>
  38:	e2830080 	add	r0, r3, #128	; 0x80
  3c:	e6ff0070 	uxth	r0, r0
  40:	e12fff1e 	bx	lr
  44:	e35000ff 	cmp	r0, #255	; 0xff
  48:	8a000004 	bhi	60 <ff_convert+0x60>
  4c:	e59f3018 	ldr	r3, [pc, #24]	; 6c <ff_convert+0x6c>
  50:	e2400080 	sub	r0, r0, #128	; 0x80
  54:	e1a00080 	lsl	r0, r0, #1
  58:	e19300b0 	ldrh	r0, [r3, r0]
  5c:	e12fff1e 	bx	lr
  60:	e3a00000 	mov	r0, #0
  64:	e12fff1e 	bx	lr
  68:	00000002 	andeq	r0, r0, r2
  6c:	00000000 	andeq	r0, r0, r0

00000070 <ff_wtoupper>:
  70:	e59f2128 	ldr	r2, [pc, #296]	; 1a0 <ff_wtoupper+0x130>
  74:	e59f3128 	ldr	r3, [pc, #296]	; 1a4 <ff_wtoupper+0x134>
  78:	e1500002 	cmp	r0, r2
  7c:	e2832f7d 	add	r2, r3, #500	; 0x1f4
  80:	e59f1120 	ldr	r1, [pc, #288]	; 1a8 <ff_wtoupper+0x138>
  84:	81a03002 	movhi	r3, r2
  88:	93a01061 	movls	r1, #97	; 0x61
  8c:	e92d4010 	push	{r4, lr}
  90:	e2833004 	add	r3, r3, #4
  94:	ea000003 	b	a8 <ff_wtoupper+0x38>
  98:	e3520000 	cmp	r2, #0
  9c:	e2833004 	add	r3, r3, #4
  a0:	0a00001b 	beq	114 <ff_wtoupper+0xa4>
  a4:	e15310b4 	ldrh	r1, [r3, #-4]
  a8:	e1500001 	cmp	r0, r1
  ac:	23a02000 	movcs	r2, #0
  b0:	33a02001 	movcc	r2, #1
  b4:	e3510000 	cmp	r1, #0
  b8:	03a02001 	moveq	r2, #1
  bc:	e3520000 	cmp	r2, #0
  c0:	18bd8010 	popne	{r4, pc}
  c4:	e15320b2 	ldrh	r2, [r3, #-2]
  c8:	e1a04003 	mov	r4, r3
  cc:	e6efc072 	uxtb	ip, r2
  d0:	e08ce001 	add	lr, ip, r1
  d4:	e150000e 	cmp	r0, lr
  d8:	e1a02422 	lsr	r2, r2, #8
  dc:	aaffffed 	bge	98 <ff_wtoupper+0x28>
  e0:	e3520008 	cmp	r2, #8
  e4:	979ff102 	ldrls	pc, [pc, r2, lsl #2]
  e8:	ea000008 	b	110 <ff_wtoupper+0xa0>
  ec:	00000134 	andeq	r0, r0, r4, lsr r1
  f0:	00000144 	andeq	r0, r0, r4, asr #2
  f4:	00000158 	andeq	r0, r0, r8, asr r1
  f8:	00000164 	andeq	r0, r0, r4, ror #2
  fc:	00000170 	andeq	r0, r0, r0, ror r1
 100:	0000017c 	andeq	r0, r0, ip, ror r1
 104:	00000188 	andeq	r0, r0, r8, lsl #3
 108:	00000194 	muleq	r0, r4, r1
 10c:	00000124 	andeq	r0, r0, r4, lsr #2
 110:	e8bd8010 	pop	{r4, pc}
 114:	e1a0c08c 	lsl	ip, ip, #1
 118:	e084300c 	add	r3, r4, ip
 11c:	e19410bc 	ldrh	r1, [r4, ip]
 120:	eaffffda 	b	90 <ff_wtoupper+0x20>
 124:	e2403d71 	sub	r3, r0, #7232	; 0x1c40
 128:	e2433020 	sub	r3, r3, #32
 12c:	e6ff0073 	uxth	r0, r3
 130:	e8bd8010 	pop	{r4, pc}
 134:	e0402001 	sub	r2, r0, r1
 138:	e1a02082 	lsl	r2, r2, #1
 13c:	e19300b2 	ldrh	r0, [r3, r2]
 140:	e8bd8010 	pop	{r4, pc}
 144:	e0403001 	sub	r3, r0, r1
 148:	e2033001 	and	r3, r3, #1
 14c:	e0403003 	sub	r3, r0, r3
 150:	e6ff0073 	uxth	r0, r3
 154:	e8bd8010 	pop	{r4, pc}
 158:	e2403010 	sub	r3, r0, #16
 15c:	e6ff0073 	uxth	r0, r3
 160:	e8bd8010 	pop	{r4, pc}
 164:	e2403020 	sub	r3, r0, #32
 168:	e6ff0073 	uxth	r0, r3
 16c:	e8bd8010 	pop	{r4, pc}
 170:	e2403030 	sub	r3, r0, #48	; 0x30
 174:	e6ff0073 	uxth	r0, r3
 178:	e8bd8010 	pop	{r4, pc}
 17c:	e240301a 	sub	r3, r0, #26
 180:	e6ff0073 	uxth	r0, r3
 184:	e8bd8010 	pop	{r4, pc}
 188:	e2803008 	add	r3, r0, #8
 18c:	e6ff0073 	uxth	r0, r3
 190:	e8bd8010 	pop	{r4, pc}
 194:	e2403050 	sub	r3, r0, #80	; 0x50
 198:	e6ff0073 	uxth	r0, r3
 19c:	e8bd8010 	pop	{r4, pc}
 1a0:	00000fff 	strdeq	r0, [r0], -pc	; <UNPREDICTABLE>
 1a4:	00000100 	andeq	r0, r0, r0, lsl #2
 1a8:	00001d7d 	andeq	r1, r0, sp, ror sp

Disassembly of section .rodata:

00000000 <Tbl>:
   0:	00fc00c7 	rscseq	r0, ip, r7, asr #1
   4:	00e200e9 	rsceq	r0, r2, r9, ror #1
   8:	00e000e4 	rsceq	r0, r0, r4, ror #1
   c:	00e700e5 	rsceq	r0, r7, r5, ror #1
  10:	00eb00ea 	rsceq	r0, fp, sl, ror #1
  14:	00ef00e8 	rsceq	r0, pc, r8, ror #1
  18:	00ec00ee 	rsceq	r0, ip, lr, ror #1
  1c:	00c500c4 	sbceq	r0, r5, r4, asr #1
  20:	00e600c9 	rsceq	r0, r6, r9, asr #1
  24:	00f400c6 	rscseq	r0, r4, r6, asr #1
  28:	00f200f6 	ldrshteq	r0, [r2], #6
  2c:	00f900fb 	ldrshteq	r0, [r9], #11
  30:	00d600ff 	ldrsheq	r0, [r6], #15
  34:	00f800dc 	ldrsbteq	r0, [r8], #12
  38:	00d800a3 	sbcseq	r0, r8, r3, lsr #1
  3c:	019200d7 	ldrsbeq	r0, [r2, r7]
  40:	00ed00e1 	rsceq	r0, sp, r1, ror #1
  44:	00fa00f3 	ldrshteq	r0, [sl], #3
  48:	00d100f1 	ldrsheq	r0, [r1], #1
  4c:	00ba00aa 	adcseq	r0, sl, sl, lsr #1
  50:	00ae00bf 	strhteq	r0, [lr], pc
  54:	00bd00ac 	adcseq	r0, sp, ip, lsr #1
  58:	00a100bc 	strhteq	r0, [r1], ip
  5c:	00bb00ab 	adcseq	r0, fp, fp, lsr #1
  60:	25922591 	ldrcs	r2, [r2, #1425]	; 0x591
  64:	25022593 	strcs	r2, [r2, #-1427]	; 0xfffffa6d
  68:	00c12524 	sbceq	r2, r1, r4, lsr #10
  6c:	00c000c2 	sbceq	r0, r0, r2, asr #1
  70:	256300a9 	strbcs	r0, [r3, #-169]!	; 0xffffff57
  74:	25572551 	ldrbcs	r2, [r7, #-1361]	; 0xfffffaaf
  78:	00a2255d 	adceq	r2, r2, sp, asr r5
  7c:	251000a5 	ldrcs	r0, [r0, #-165]	; 0xffffff5b
  80:	25342514 	ldrcs	r2, [r4, #-1300]!	; 0xfffffaec
  84:	251c252c 	ldrcs	r2, [ip, #-1324]	; 0xfffffad4
  88:	253c2500 	ldrcs	r2, [ip, #-1280]!	; 0xfffffb00
  8c:	00c300e3 	sbceq	r0, r3, r3, ror #1
  90:	2554255a 	ldrbcs	r2, [r4, #-1370]	; 0xfffffaa6
  94:	25662569 	strbcs	r2, [r6, #-1385]!	; 0xfffffa97
  98:	25502560 	ldrbcs	r2, [r0, #-1376]	; 0xfffffaa0
  9c:	00a4256c 	adceq	r2, r4, ip, ror #10
  a0:	00d000f0 	ldrsheq	r0, [r0], #0
  a4:	00cb00ca 	sbceq	r0, fp, sl, asr #1
  a8:	013100c8 	teqeq	r1, r8, asr #1
  ac:	00ce00cd 	sbceq	r0, lr, sp, asr #1
  b0:	251800cf 	ldrcs	r0, [r8, #-207]	; 0xffffff31
  b4:	2588250c 	strcs	r2, [r8, #1292]	; 0x50c
  b8:	00a62584 	adceq	r2, r6, r4, lsl #11
  bc:	258000cc 	strcs	r0, [r0, #204]	; 0xcc
  c0:	00df00d3 	ldrsbeq	r0, [pc], #3	; <UNPREDICTABLE>
  c4:	00d200d4 	ldrsbeq	r0, [r2], #4
  c8:	00d500f5 	ldrsheq	r0, [r5], #5
  cc:	00fe00b5 	ldrhteq	r0, [lr], #5
  d0:	00da00de 	ldrsbeq	r0, [sl], #14
  d4:	00d900db 	ldrsbeq	r0, [r9], #11
  d8:	00dd00fd 	ldrsheq	r0, [sp], #13
  dc:	00b400af 	adcseq	r0, r4, pc, lsr #1
  e0:	00b100ad 	adcseq	r0, r1, sp, lsr #1
  e4:	00be2017 	adcseq	r2, lr, r7, lsl r0
  e8:	00a700b6 	strhteq	r0, [r7], r6
  ec:	00b800f7 	ldrshteq	r0, [r8], r7
  f0:	00a800b0 	strhteq	r0, [r8], r0
  f4:	00b900b7 	ldrhteq	r0, [r9], r7
  f8:	00b200b3 	ldrhteq	r0, [r2], r3
  fc:	00a025a0 	adceq	r2, r0, r0, lsr #11

00000100 <cvt1.5194>:
 100:	031a0061 	tsteq	sl, #97	; 0x61
 104:	031700e0 	tsteq	r7, #224	; 0xe0
 108:	030700f8 	movweq	r0, #28920	; 0x70f8
 10c:	000100ff 	strdeq	r0, [r1], -pc	; <UNPREDICTABLE>
 110:	01000178 	tsteq	r0, r8, ror r1
 114:	01320130 	teqeq	r2, r0, lsr r1
 118:	01390106 	teqeq	r9, r6, lsl #2
 11c:	014a0110 	cmpeq	sl, r0, lsl r1
 120:	0179012e 	cmneq	r9, lr, lsr #2
 124:	01800106 	orreq	r0, r0, r6, lsl #2
 128:	0243004d 	subeq	r0, r3, #77	; 0x4d
 12c:	01820181 	orreq	r0, r2, r1, lsl #3
 130:	01840182 	orreq	r0, r4, r2, lsl #3
 134:	01860184 	orreq	r0, r6, r4, lsl #3
 138:	01870187 	orreq	r0, r7, r7, lsl #3
 13c:	018a0189 	orreq	r0, sl, r9, lsl #3
 140:	018b018b 	orreq	r0, fp, fp, lsl #3
 144:	018e018d 	orreq	r0, lr, sp, lsl #3
 148:	0190018f 	orrseq	r0, r0, pc, lsl #3
 14c:	01910191 			; <UNDEFINED> instruction: 0x01910191
 150:	01940193 			; <UNDEFINED> instruction: 0x01940193
 154:	019601f6 			; <UNDEFINED> instruction: 0x019601f6
 158:	01980197 			; <UNDEFINED> instruction: 0x01980197
 15c:	023d0198 	eorseq	r0, sp, #152, 2	; 0x26
 160:	019c019b 			; <UNDEFINED> instruction: 0x019c019b
 164:	0220019d 	eoreq	r0, r0, #1073741863	; 0x40000027
 168:	01a0019f 	lsleq	r0, pc	; <illegal shifter operand>
 16c:	01a201a0 			; <UNDEFINED> instruction: 0x01a201a0
 170:	01a401a2 			; <UNDEFINED> instruction: 0x01a401a2
 174:	01a601a4 			; <UNDEFINED> instruction: 0x01a601a4
 178:	01a701a7 			; <UNDEFINED> instruction: 0x01a701a7
 17c:	01aa01a9 			; <UNDEFINED> instruction: 0x01aa01a9
 180:	01ac01ab 			; <UNDEFINED> instruction: 0x01ac01ab
 184:	01ae01ac 			; <UNDEFINED> instruction: 0x01ae01ac
 188:	01af01af 			; <UNDEFINED> instruction: 0x01af01af
 18c:	01b201b1 			; <UNDEFINED> instruction: 0x01b201b1
 190:	01b301b3 			; <UNDEFINED> instruction: 0x01b301b3
 194:	01b501b5 			; <UNDEFINED> instruction: 0x01b501b5
 198:	01b801b7 			; <UNDEFINED> instruction: 0x01b801b7
 19c:	01ba01b8 			; <UNDEFINED> instruction: 0x01ba01b8
 1a0:	01bc01bb 			; <UNDEFINED> instruction: 0x01bc01bb
 1a4:	01be01bc 			; <UNDEFINED> instruction: 0x01be01bc
 1a8:	01c001f7 	strdeq	r0, [r0, #23]
 1ac:	01c201c1 	biceq	r0, r2, r1, asr #3
 1b0:	01c401c3 	biceq	r0, r4, r3, asr #3
 1b4:	01c401c5 	biceq	r0, r4, r5, asr #3
 1b8:	01c801c7 	biceq	r0, r8, r7, asr #3
 1bc:	01ca01c7 	biceq	r0, sl, r7, asr #3
 1c0:	01ca01cb 	biceq	r0, sl, fp, asr #3
 1c4:	011001cd 	tsteq	r0, sp, asr #3
 1c8:	000101dd 	ldrdeq	r0, [r1], -sp
 1cc:	01de018e 	bicseq	r0, lr, lr, lsl #3
 1d0:	01f30112 	mvnseq	r0, r2, lsl r1
 1d4:	01f10003 	mvnseq	r0, r3
 1d8:	01f401f4 	ldrsheq	r0, [r4, #20]!
 1dc:	012801f8 	strdeq	r0, [r8, -r8]!
 1e0:	01120222 	tsteq	r2, r2, lsr #4
 1e4:	0009023a 	andeq	r0, r9, sl, lsr r2
 1e8:	023b2c65 	eorseq	r2, fp, #25856	; 0x6500
 1ec:	023d023b 	eorseq	r0, sp, #-1342177277	; 0xb0000003
 1f0:	023f2c66 	eorseq	r2, pc, #26112	; 0x6600
 1f4:	02410240 	subeq	r0, r1, #64, 4
 1f8:	02460241 	subeq	r0, r6, #268435460	; 0x10000004
 1fc:	0253010a 	subseq	r0, r3, #-2147483646	; 0x80000002
 200:	01810040 	orreq	r0, r1, r0, asr #32
 204:	02550186 	subseq	r0, r5, #-2147483615	; 0x80000021
 208:	018a0189 	orreq	r0, sl, r9, lsl #3
 20c:	018f0258 	orreq	r0, pc, r8, asr r2	; <UNPREDICTABLE>
 210:	0190025a 	orrseq	r0, r0, sl, asr r2
 214:	025d025c 	subseq	r0, sp, #92, 4	; 0xc0000005
 218:	025f025e 	subseq	r0, pc, #-536870907	; 0xe0000005
 21c:	02610193 	rsbeq	r0, r1, #-1073741788	; 0xc0000024
 220:	01940262 	orrseq	r0, r4, r2, ror #4
 224:	02650264 	rsbeq	r0, r5, #100, 4	; 0x40000006
 228:	02670266 	rsbeq	r0, r7, #1610612742	; 0x60000006
 22c:	01960197 			; <UNDEFINED> instruction: 0x01960197
 230:	2c62026a 	sfmcs	f0, 2, [r2], #-424	; 0xfffffe58
 234:	026d026c 	rsbeq	r0, sp, #108, 4	; 0xc0000006
 238:	019c026e 	orrseq	r0, ip, lr, ror #4
 23c:	02710270 	rsbseq	r0, r1, #112, 4
 240:	0273019d 	rsbseq	r0, r3, #1073741863	; 0x40000027
 244:	019f0274 	orrseq	r0, pc, r4, ror r2	; <UNPREDICTABLE>
 248:	02770276 	rsbseq	r0, r7, #1610612743	; 0x60000007
 24c:	02790278 	rsbseq	r0, r9, #120, 4	; 0x80000007
 250:	027b027a 	rsbseq	r0, fp, #-1610612729	; 0xa0000007
 254:	2c64027c 	sfmcs	f0, 2, [r4], #-496	; 0xfffffe10
 258:	027f027e 	rsbseq	r0, pc, #-536870905	; 0xe0000007
 25c:	028101a6 	addeq	r0, r1, #-2147483607	; 0x80000029
 260:	01a90282 			; <UNDEFINED> instruction: 0x01a90282
 264:	02850284 	addeq	r0, r5, #132, 4	; 0x40000008
 268:	02870286 	addeq	r0, r7, #1610612744	; 0x60000008
 26c:	024401ae 	subeq	r0, r4, #-2147483605	; 0x8000002b
 270:	01b201b1 			; <UNDEFINED> instruction: 0x01b201b1
 274:	028d0245 	addeq	r0, sp, #1342177284	; 0x50000004
 278:	028f028e 	addeq	r0, pc, #-536870904	; 0xe0000008
 27c:	02910290 	addseq	r0, r1, #144, 4
 280:	037b01b7 	cmneq	fp, #-1073741779	; 0xc000002d
 284:	03fd0003 	mvnseq	r0, #3
 288:	03ff03fe 	mvnseq	r0, #-134217725	; 0xf8000003
 28c:	000403ac 	andeq	r0, r4, ip, lsr #7
 290:	03880386 	orreq	r0, r8, #402653186	; 0x18000002
 294:	038a0389 	orreq	r0, sl, #603979778	; 0x24000002
 298:	031103b1 	tsteq	r1, #-1006632958	; 0xc4000002
 29c:	000203c2 	andeq	r0, r2, r2, asr #7
 2a0:	03a303a3 			; <UNDEFINED> instruction: 0x03a303a3
 2a4:	030803c4 	movweq	r0, #33732	; 0x83c4
 2a8:	000303cc 	andeq	r0, r3, ip, asr #7
 2ac:	038e038c 	orreq	r0, lr, #140, 6	; 0x30000002
 2b0:	03d8038f 	bicseq	r0, r8, #1006632962	; 0x3c000002
 2b4:	03f20118 	mvnseq	r0, #24, 2
 2b8:	03f9000a 	mvnseq	r0, #10
 2bc:	03f403f3 	mvnseq	r0, #-872415229	; 0xcc000003
 2c0:	03f603f5 	mvnseq	r0, #-738197501	; 0xd4000003
 2c4:	03f703f7 	mvnseq	r0, #-603979773	; 0xdc000003
 2c8:	03fa03f9 	mvnseq	r0, #-469762045	; 0xe4000003
 2cc:	043003fa 	ldrteq	r0, [r0], #-1018	; 0xfffffc06
 2d0:	04500320 	ldrbeq	r0, [r0], #-800	; 0xfffffce0
 2d4:	04600710 	strbteq	r0, [r0], #-1808	; 0xfffff8f0
 2d8:	048a0122 	streq	r0, [sl], #290	; 0x122
 2dc:	04c10136 	strbeq	r0, [r1], #310	; 0x136
 2e0:	04cf010e 	strbeq	r0, [pc], #270	; 2e8 <cvt1.5194+0x1e8>
 2e4:	04c00001 	strbeq	r0, [r0], #1
 2e8:	014404d0 	ldrdeq	r0, [r4, #-64]	; 0xffffffc0
 2ec:	04260561 	strteq	r0, [r6], #-1377	; 0xfffffa9f
 2f0:	00000000 	andeq	r0, r0, r0

000002f4 <cvt2.5195>:
 2f4:	00011d7d 	andeq	r1, r1, sp, ror sp
 2f8:	1e002c63 	cdpne	12, 0, cr2, cr0, cr3, {3}
 2fc:	1ea00196 	mcrne	1, 5, r0, cr0, cr6, {4}
 300:	1f00015a 	svcne	0x0000015a
 304:	1f100608 	svcne	0x00100608
 308:	1f200606 	svcne	0x00200606
 30c:	1f300608 	svcne	0x00300608
 310:	1f400608 	svcne	0x00400608
 314:	1f510606 	svcne	0x00510606
 318:	1f590007 	svcne	0x00590007
 31c:	1f5b1f52 	svcne	0x005b1f52
 320:	1f5d1f54 	svcne	0x005d1f54
 324:	1f5f1f56 	svcne	0x005f1f56
 328:	06081f60 	streq	r1, [r8], -r0, ror #30
 32c:	000e1f70 	andeq	r1, lr, r0, ror pc
 330:	1fbb1fba 	svcne	0x00bb1fba
 334:	1fc91fc8 	svcne	0x00c91fc8
 338:	1fcb1fca 	svcne	0x00cb1fca
 33c:	1fdb1fda 	svcne	0x00db1fda
 340:	1ff91ff8 	svcne	0x00f91ff8
 344:	1feb1fea 	svcne	0x00eb1fea
 348:	1ffb1ffa 	svcne	0x00fb1ffa
 34c:	06081f80 	streq	r1, [r8], -r0, lsl #31
 350:	06081f90 			; <UNDEFINED> instruction: 0x06081f90
 354:	06081fa0 	streq	r1, [r8], -r0, lsr #31
 358:	00041fb0 			; <UNDEFINED> instruction: 0x00041fb0
 35c:	1fb91fb8 	svcne	0x00b91fb8
 360:	1fbc1fb2 	svcne	0x00bc1fb2
 364:	00011fcc 	andeq	r1, r1, ip, asr #31
 368:	1fd01fc3 	svcne	0x00d01fc3
 36c:	1fe00602 	svcne	0x00e00602
 370:	1fe50602 	svcne	0x00e50602
 374:	1fec0001 	svcne	0x00ec0001
 378:	00011ff2 	strdeq	r1, [r1], -r2
 37c:	214e1ffc 	strdcs	r1, [lr, #-252]	; 0xffffff04
 380:	21320001 	teqcs	r2, r1
 384:	02102170 	andseq	r2, r0, #112, 2
 388:	00012184 	andeq	r2, r1, r4, lsl #3
 38c:	24d02183 	ldrbcs	r2, [r0], #387	; 0x183
 390:	2c30051a 	cfldr32cs	mvfx0, [r0], #-104	; 0xffffff98
 394:	2c60042f 	cfstrdcs	mvd0, [r0], #-188	; 0xffffff44
 398:	2c670102 	stfcse	f0, [r7], #-8
 39c:	2c750106 	ldfcse	f0, [r5], #-24	; 0xffffffe8
 3a0:	2c800102 	stfcss	f0, [r0], {2}
 3a4:	2d000164 	stfcss	f0, [r0, #-400]	; 0xfffffe70
 3a8:	ff410826 			; <UNDEFINED> instruction: 0xff410826
 3ac:	0000031a 	andeq	r0, r0, sl, lsl r3

Disassembly of section .comment:

00000000 <.comment>:
   0:	43434700 	movtmi	r4, #14080	; 0x3700
   4:	4728203a 			; <UNDEFINED> instruction: 0x4728203a
   8:	5420554e 	strtpl	r5, [r0], #-1358	; 0xfffffab2
   c:	736c6f6f 	cmnvc	ip, #444	; 0x1bc
  10:	726f6620 	rsbvc	r6, pc, #32, 12	; 0x2000000
  14:	6d724120 	ldfvse	f4, [r2, #-128]!	; 0xffffff80
  18:	626d4520 	rsbvs	r4, sp, #32, 10	; 0x8000000
  1c:	65646465 	strbvs	r6, [r4, #-1125]!	; 0xfffffb9b
  20:	72502064 	subsvc	r2, r0, #100	; 0x64
  24:	7365636f 	cmnvc	r5, #-1140850687	; 0xbc000001
  28:	73726f73 	cmnvc	r2, #460	; 0x1cc
  2c:	322d3820 	eorcc	r3, sp, #32, 16	; 0x200000
  30:	2d393130 	ldfcss	f3, [r9, #-192]!	; 0xffffff40
  34:	752d3371 	strvc	r3, [sp, #-881]!	; 0xfffffc8f
  38:	74616470 	strbtvc	r6, [r1], #-1136	; 0xfffffb90
  3c:	38202965 	stmdacc	r0!, {r0, r2, r5, r6, r8, fp, sp}
  40:	312e332e 			; <UNDEFINED> instruction: 0x312e332e
  44:	31303220 	teqcc	r0, r0, lsr #4
  48:	30373039 	eorscc	r3, r7, r9, lsr r0
  4c:	72282033 	eorvc	r2, r8, #51	; 0x33
  50:	61656c65 	cmnvs	r5, r5, ror #24
  54:	20296573 	eorcs	r6, r9, r3, ror r5
  58:	6363675b 	cmnvs	r3, #23855104	; 0x16c0000
  5c:	622d382d 	eorvs	r3, sp, #2949120	; 0x2d0000
  60:	636e6172 	cmnvs	lr, #-2147483620	; 0x8000001c
  64:	65722068 	ldrbvs	r2, [r2, #-104]!	; 0xffffff98
  68:	69736976 	ldmdbvs	r3!, {r1, r2, r4, r5, r6, r8, fp, sp, lr}^
  6c:	32206e6f 	eorcc	r6, r0, #1776	; 0x6f0
  70:	32303337 	eorscc	r3, r0, #-603979776	; 0xdc000000
  74:	Address 0x0000000000000074 is out of bounds.


Disassembly of section .ARM.attributes:

00000000 <.ARM.attributes>:
   0:	00003241 	andeq	r3, r0, r1, asr #4
   4:	61656100 	cmnvs	r5, r0, lsl #2
   8:	01006962 	tsteq	r0, r2, ror #18
   c:	00000028 	andeq	r0, r0, r8, lsr #32
  10:	4b5a3605 	blmi	168d82c <cvt2.5195+0x168d538>
  14:	08070600 	stmdaeq	r7, {r9, sl}
  18:	0a010901 	beq	42424 <cvt2.5195+0x42130>
  1c:	14041202 	strne	r1, [r4], #-514	; 0xfffffdfe
  20:	17011501 	strne	r1, [r1, -r1, lsl #10]
  24:	19011803 	stmdbne	r1, {r0, r1, fp, ip}
  28:	1c011a01 			; <UNDEFINED> instruction: 0x1c011a01
  2c:	22021e01 	andcs	r1, r2, #1, 28
  30:	Address 0x0000000000000030 is out of bounds.

